(lp0
(lp1
I12
aF0.0
aF0.23076923076923078
aF0.0
aF0.23076923076923078
aF0.07692307692307693
aI0
aI0
aI0
aI1
aI5
aI0
aI0
aI0
aI0
acnumpy.core.multiarray
scalar
p2
(cnumpy
dtype
p3
(S'f8'
p4
I0
I1
tp5
Rp6
(I3
S'<'
p7
NNNI-1
I-1
I0
tp8
bS'\xb1\x13;q3\xb6\xe7?'
p9
tp10
Rp11
ag2
(g6
S'\xb1\x13;1\xa8&\xe8?'
p12
tp13
Rp14
ag2
(g6
S"b'vbR\xa1\xe7?"
p15
tp16
Rp17
ag2
(g6
S'\x9e\xd8\x89\x1d\xdb\r\xe8?'
p18
tp19
Rp20
aF2.162379264831543
aF55.365264892578125
aF-28.675119400024414
aF-10.882841110229492
aF-49.81708526611328
aF5.1774492263793945
aF-20.69742774963379
aF-24.177215576171875
aF29.3947696685791
aF5.106939792633057
aF-32.20267868041992
aF-3.823423385620117
aF-55.654518127441406
aF-29.85787010192871
aF-6.32044792175293
aF23.493045806884766
aF-11.055142402648926
aF-13.973958969116211
aF12.143786430358887
aF-9.754861831665039
aF-90.27593231201172
aF-16.3343448638916
aF0.5598145127296448
aF43.519100189208984
aF-10.459935188293457
aF-23.06743812561035
aF2.027979612350464
aF-3.1472554206848145
aF-23.579843521118164
aF-18.723115921020508
aF9.662361145019531
aF69.00159454345703
aF-42.179710388183594
aF-22.25416374206543
aF2.905710458755493
aF36.51952362060547
aF-23.1164608001709
aF10.169205665588379
aF39.56252670288086
aF-48.77910614013672
aF-18.740388870239258
aF-3.757122755050659
aF-6.631844520568848
aF-19.581464767456055
aF-33.270843505859375
aF-27.901670455932617
aF2.7747671604156494
aF-25.955862045288086
aF41.26908874511719
aF21.8218936920166
aF-19.594247817993164
aF-22.76582145690918
aF-31.003734588623047
aF-21.490955352783203
aF-32.63043975830078
aF-31.756542205810547
aF16.862436294555664
aF4.45650053024292
aF-26.750051498413086
aF-1.3105796575546265
aF-14.52174186706543
aF24.611297607421875
aF-3.9983019828796387
aF0.4807698130607605
aF26.461198806762695
aF-19.020112991333008
aF-33.597381591796875
aF9.887917518615723
aF33.484901428222656
aF9.136493682861328
aF-33.23689651489258
aF-9.424782752990723
aF-11.563426971435547
aF-2.712794303894043
aF-46.633914947509766
aF-2.8682265281677246
aF16.417211532592773
aF-2.4949254989624023
aF42.386932373046875
aF51.964500427246094
aF31.09329605102539
aF5.742440700531006
aF-20.956607818603516
aF-28.551193237304688
aF-32.25295639038086
aF-14.592879295349121
aF-6.507091045379639
aF-62.56912612915039
aF16.786130905151367
aF-68.52558898925781
aF-82.70568084716797
aF-31.551366806030273
aF-2.6715967655181885
aF-9.242767333984375
aF1.174019694328308
aF-40.433719635009766
aF0.7753016948699951
aF-29.697322845458984
aF-16.09651756286621
aF-6.143001556396484
aa(lp21
I22
aF0.0
aF0.043478260869565216
aF0.0
aF0.8260869565217391
aF0.0
aI0
aI1
aI0
aI2
aI12
aI0
aI0
aI0
aI0
ag2
(g6
S'\xbd\xe9MO\xf5\xcf\xe8?'
p22
tp23
Rp24
ag2
(g6
S'8\xbd\xe9m\t\xe1\xe8?'
p25
tp26
Rp27
ag2
(g6
S'\xd3\x9b\xde\x94\x15\xd1\xe8?'
p28
tp29
Rp30
ag2
(g6
S'\x00\x00\x00\xe0\xc0\xd2\xe8?'
p31
tp32
Rp33
aF8.106237411499023
aF115.1352767944336
aF-62.67587661743164
aF-20.96646499633789
aF-104.8406982421875
aF17.10710906982422
aF-44.34041976928711
aF-55.60588073730469
aF60.10543441772461
aF15.22472095489502
aF-67.47108459472656
aF-6.8730878829956055
aF-120.51448822021484
aF-64.48678588867188
aF-9.814306259155273
aF48.87092971801758
aF-18.334144592285156
aF-28.41067886352539
aF25.99046516418457
aF-22.846031188964844
aF-193.11309814453125
aF-30.520610809326172
aF0.16346052289009094
aF91.5662612915039
aF-20.587596893310547
aF-46.11551284790039
aF1.0642995834350586
aF-3.996138572692871
aF-53.15264892578125
aF-40.97744369506836
aF15.761740684509277
aF150.51358032226562
aF-81.19470977783203
aF-47.62442398071289
aF6.401276588439941
aF81.22098541259766
aF-48.63853073120117
aF21.094768524169922
aF86.69374084472656
aF-104.93961334228516
aF-40.256404876708984
aF-5.637763500213623
aF-16.167205810546875
aF-38.47828674316406
aF-70.99565124511719
aF-64.18213653564453
aF8.224700927734375
aF-53.66347885131836
aF88.04987335205078
aF43.19731903076172
aF-42.74992370605469
aF-48.60401153564453
aF-60.26784133911133
aF-47.00914001464844
aF-69.93754577636719
aF-69.98149871826172
aF34.69776153564453
aF7.591794967651367
aF-61.55927276611328
aF-0.058552466332912445
aF-33.168251037597656
aF52.35354995727539
aF-9.575441360473633
aF-0.978070080280304
aF52.5941047668457
aF-40.98236083984375
aF-75.544189453125
aF20.830656051635742
aF74.76599884033203
aF20.24346351623535
aF-66.84418487548828
aF-15.030367851257324
aF-26.93060302734375
aF-1.5923395156860352
aF-102.88818359375
aF-10.83657455444336
aF34.264915466308594
aF-2.7979273796081543
aF88.38728332519531
aF114.75830078125
aF66.03466796875
aF14.530668258666992
aF-45.95192337036133
aF-62.79542541503906
aF-63.35176467895508
aF-26.334501266479492
aF-10.856021881103516
aF-135.45114135742188
aF41.10063171386719
aF-145.4480743408203
aF-174.58795166015625
aF-67.20762634277344
aF-4.695247173309326
aF-12.809715270996094
aF-0.7501113414764404
aF-85.83187103271484
aF2.246523857116699
aF-54.966468811035156
aF-34.580867767333984
aF-13.650341987609863
aa(lp34
I20
aF0.0
aF0.14285714285714285
aF0.047619047619047616
aF0.23809523809523808
aF0.09523809523809523
aI0
aI1
aI0
aI2
aI4
aI2
aI0
aI0
aI0
ag2
(g6
S'UUUU\x8dQ\xeb?'
p35
tp36
Rp37
ag2
(g6
S'\xb7m\xdb\xd6\x86\x15\xeb?'
p38
tp39
Rp40
ag2
(g6
S'b\x18\x86\xe1\n\x17\xeb?'
p41
tp42
Rp43
ag2
(g6
S'\x18\x86a\x18\xf2)\xeb?'
p44
tp45
Rp46
aF10.968847274780273
aF139.03599548339844
aF-76.1773681640625
aF-24.78030776977539
aF-129.83164978027344
aF24.207216262817383
aF-55.69169235229492
aF-68.03150939941406
aF74.65270233154297
aF19.214977264404297
aF-83.34281158447266
aF-9.359193801879883
aF-149.7340087890625
aF-78.8914794921875
aF-11.08401107788086
aF61.7275390625
aF-21.294170379638672
aF-32.677249908447266
aF31.83905029296875
aF-27.595291137695312
aF-235.26438903808594
aF-37.313167572021484
aF0.660159170627594
aF111.99911499023438
aF-24.657161712646484
aF-56.93718338012695
aF0.7433834075927734
aF-4.6359052658081055
aF-65.07669830322266
aF-49.16179656982422
aF18.970447540283203
aF185.09181213378906
aF-96.53083801269531
aF-56.29710006713867
aF6.975040912628174
aF101.66285705566406
aF-59.19008255004883
aF26.903640747070312
aF104.57954406738281
aF-128.15396118164062
aF-50.649295806884766
aF-6.988342761993408
aF-18.435258865356445
aF-46.977203369140625
aF-87.29727935791016
aF-80.81768035888672
aF12.07553482055664
aF-64.12018585205078
aF108.67989349365234
aF51.378517150878906
aF-52.41699981689453
aF-58.51460647583008
aF-72.55602264404297
aF-57.77545928955078
aF-84.3220443725586
aF-86.50506591796875
aF43.744361877441406
aF9.524885177612305
aF-76.74942779541016
aF-2.8128252029418945
aF-40.10458755493164
aF66.02507019042969
aF-11.288130760192871
aF-2.3046109676361084
aF62.31794738769531
aF-51.10371780395508
aF-91.92327880859375
aF24.484834671020508
aF91.28428649902344
aF23.90865135192871
aF-78.73555755615234
aF-18.992042541503906
aF-33.346336364746094
aF-1.0400080680847168
aF-125.25279235839844
aF-13.688128471374512
aF42.08427429199219
aF-2.4637579917907715
aF107.22921752929688
aF138.9897003173828
aF78.6366195678711
aF19.473730087280273
aF-55.27125930786133
aF-75.4178695678711
aF-77.24884033203125
aF-30.797515869140625
aF-12.748250961303711
aF-164.81448364257812
aF53.02079391479492
aF-178.1852569580078
aF-211.1816864013672
aF-81.52886199951172
aF-5.544017791748047
aF-15.306012153625488
aF-0.6087571978569031
aF-106.3814468383789
aF2.5741193294525146
aF-65.75187683105469
aF-44.27987289428711
aF-16.077842712402344
aa(lp47
I0
aF0.0
aF0.0
aF0.0
aF0.0
aF0.0
aI0
aI0
aI0
aI0
aI0
aI0
aI0
aI0
aI0
aF0.0
aF0.0
aF0.0
aF0.0
aF0.0
aF0.0
aF0.0
aF0.0
aF0.0
aF0.0
aF0.0
aF0.0
aF0.0
aF0.0
aF0.0
aF0.0
aF0.0
aF0.0
aF0.0
aF0.0
aF0.0
aF0.0
aF0.0
aF0.0
aF0.0
aF0.0
aF0.0
aF0.0
aF0.0
aF0.0
aF0.0
aF0.0
aF0.0
aF0.0
aF0.0
aF0.0
aF0.0
aF0.0
aF0.0
aF0.0
aF0.0
aF0.0
aF0.0
aF0.0
aF0.0
aF0.0
aF0.0
aF0.0
aF0.0
aF0.0
aF0.0
aF0.0
aF0.0
aF0.0
aF0.0
aF0.0
aF0.0
aF0.0
aF0.0
aF0.0
aF0.0
aF0.0
aF0.0
aF0.0
aF0.0
aF0.0
aF0.0
aF0.0
aF0.0
aF0.0
aF0.0
aF0.0
aF0.0
aF0.0
aF0.0
aF0.0
aF0.0
aF0.0
aF0.0
aF0.0
aF0.0
aF0.0
aF0.0
aF0.0
aF0.0
aF0.0
aF0.0
aF0.0
aF0.0
aF0.0
aF0.0
aF0.0
aF0.0
aF0.0
aF0.0
aF0.0
aF0.0
aF0.0
aF0.0
aF0.0
aF0.0
aF0.0
aF0.0
aF0.0
aa(lp48
I0
aF0.0
aF0.0
aF0.0
aF0.0
aF0.0
aI0
aI0
aI0
aI0
aI0
aI0
aI0
aI0
aI0
aF0.0
aF0.0
aF0.0
aF0.0
aF0.0
aF0.0
aF0.0
aF0.0
aF0.0
aF0.0
aF0.0
aF0.0
aF0.0
aF0.0
aF0.0
aF0.0
aF0.0
aF0.0
aF0.0
aF0.0
aF0.0
aF0.0
aF0.0
aF0.0
aF0.0
aF0.0
aF0.0
aF0.0
aF0.0
aF0.0
aF0.0
aF0.0
aF0.0
aF0.0
aF0.0
aF0.0
aF0.0
aF0.0
aF0.0
aF0.0
aF0.0
aF0.0
aF0.0
aF0.0
aF0.0
aF0.0
aF0.0
aF0.0
aF0.0
aF0.0
aF0.0
aF0.0
aF0.0
aF0.0
aF0.0
aF0.0
aF0.0
aF0.0
aF0.0
aF0.0
aF0.0
aF0.0
aF0.0
aF0.0
aF0.0
aF0.0
aF0.0
aF0.0
aF0.0
aF0.0
aF0.0
aF0.0
aF0.0
aF0.0
aF0.0
aF0.0
aF0.0
aF0.0
aF0.0
aF0.0
aF0.0
aF0.0
aF0.0
aF0.0
aF0.0
aF0.0
aF0.0
aF0.0
aF0.0
aF0.0
aF0.0
aF0.0
aF0.0
aF0.0
aF0.0
aF0.0
aF0.0
aF0.0
aF0.0
aF0.0
aF0.0
aF0.0
aF0.0
aF0.0
aa(lp49
I12
aF0.0
aF0.07692307692307693
aF0.0
aF0.38461538461538464
aF0.0
aI0
aI3
aI1
aI3
aI0
aI0
aI0
aI0
aI0
ag2
(g6
S'\xd9\x89\x9d(`\x0b\xe7?'
p50
tp51
Rp52
ag2
(g6
S"'vb\xa7e\xc0\xea?"
p53
tp54
Rp55
ag2
(g6
S'\x14;\xb1\xfbO\xe0\xe8?'
p56
tp57
Rp58
ag2
(g6
S'b\'v"\xb6\xc5\xe8?'
p59
tp60
Rp61
aF3.671940803527832
aF83.18792724609375
aF-41.65903854370117
aF-18.014862060546875
aF-75.12854766845703
aF6.1597208976745605
aF-30.200923919677734
aF-36.2279052734375
aF45.540733337402344
aF5.886248588562012
aF-48.418880462646484
aF-5.318735599517822
aF-84.12503814697266
aF-46.37101745605469
aF-11.378963470458984
aF35.044551849365234
aF-18.78520393371582
aF-20.439353942871094
aF18.030990600585938
aF-12.619882583618164
aF-137.59161376953125
aF-24.304553985595703
aF-0.5617465972900391
aF65.22624206542969
aF-16.2080078125
aF-35.05539321899414
aF5.084355354309082
aF-5.403261184692383
aF-34.79106140136719
aF-29.954965591430664
aF15.539718627929688
aF101.07292938232422
aF-66.55402374267578
aF-34.323272705078125
aF5.091180324554443
aF54.66556167602539
aF-33.81535339355469
aF15.428601264953613
aF57.70014953613281
aF-73.9851303100586
aF-27.42255973815918
aF-5.144814968109131
aF-9.000750541687012
aF-28.542259216308594
aF-50.75346374511719
aF-38.67287063598633
aF4.211962699890137
aF-40.30527877807617
aF60.617454528808594
aF33.64379119873047
aF-29.661487579345703
aF-34.02640151977539
aF-49.427520751953125
aF-30.565277099609375
aF-50.71101760864258
aF-46.13994598388672
aF24.45039939880371
aF7.443576812744141
aF-37.7186393737793
aF-1.3101832866668701
aF-20.110109329223633
aF36.66868591308594
aF-5.28154993057251
aF0.7859586477279663
aF42.67501449584961
aF-28.386680603027344
aF-49.850616455078125
aF14.261956214904785
aF50.68392562866211
aF12.88900375366211
aF-50.3170051574707
aF-13.572687149047852
aF-18.58272933959961
aF-4.473719596862793
aF-69.29656219482422
aF-4.41583251953125
aF23.756052017211914
aF-5.844131946563721
aF64.10630798339844
aF78.09979248046875
aF46.013912200927734
aF7.484289646148682
aF-31.97217559814453
aF-42.03342819213867
aF-49.92534255981445
aF-23.460546493530273
aF-9.29991340637207
aF-92.72614288330078
aF20.646114349365234
aF-102.80067443847656
aF-124.14059448242188
aF-47.22698211669922
aF-2.4338467121124268
aF-14.366411209106445
aF2.321702241897583
aF-61.17044448852539
aF2.575096368789673
aF-46.91728973388672
aF-23.910545349121094
aF-8.573760986328125
aa(lp62
I0
aF0.0
aF0.0
aF0.0
aF0.0
aF0.0
aI0
aI0
aI0
aI0
aI0
aI0
aI0
aI0
aI0
aF0.0
aF0.0
aF0.0
aF0.0
aF0.0
aF0.0
aF0.0
aF0.0
aF0.0
aF0.0
aF0.0
aF0.0
aF0.0
aF0.0
aF0.0
aF0.0
aF0.0
aF0.0
aF0.0
aF0.0
aF0.0
aF0.0
aF0.0
aF0.0
aF0.0
aF0.0
aF0.0
aF0.0
aF0.0
aF0.0
aF0.0
aF0.0
aF0.0
aF0.0
aF0.0
aF0.0
aF0.0
aF0.0
aF0.0
aF0.0
aF0.0
aF0.0
aF0.0
aF0.0
aF0.0
aF0.0
aF0.0
aF0.0
aF0.0
aF0.0
aF0.0
aF0.0
aF0.0
aF0.0
aF0.0
aF0.0
aF0.0
aF0.0
aF0.0
aF0.0
aF0.0
aF0.0
aF0.0
aF0.0
aF0.0
aF0.0
aF0.0
aF0.0
aF0.0
aF0.0
aF0.0
aF0.0
aF0.0
aF0.0
aF0.0
aF0.0
aF0.0
aF0.0
aF0.0
aF0.0
aF0.0
aF0.0
aF0.0
aF0.0
aF0.0
aF0.0
aF0.0
aF0.0
aF0.0
aF0.0
aF0.0
aF0.0
aF0.0
aF0.0
aF0.0
aF0.0
aF0.0
aF0.0
aF0.0
aF0.0
aF0.0
aF0.0
aF0.0
aF0.0
aa(lp63
I9
aF0.0
aF0.0
aF0.0
aF0.3
aF0.0
aI0
aI0
aI0
aI4
aI6
aI2
aI0
aI0
aI0
ag2
(g6
S'333c\xa8M\xe9?'
p64
tp65
Rp66
ag2
(g6
S'333\xa3\x0b$\xe8?'
p67
tp68
Rp69
ag2
(g6
S'\xcd\xcc\xcc\xac\x86\x89\xe8?'
p70
tp71
Rp72
ag2
(g6
S'\x9a\x99\x99\xc9t\xc1\xe8?'
p73
tp74
Rp75
aF0.7825039625167847
aF82.71611022949219
aF-40.195926666259766
aF-18.806427001953125
aF-71.18746185302734
aF0.020980000495910645
aF-28.667760848999023
aF-32.73011779785156
aF44.61796569824219
aF3.4636294841766357
aF-46.74647903442383
aF-4.619843482971191
aF-77.67512512207031
aF-43.54065704345703
aF-13.073683738708496
aF32.52903366088867
aF-21.718000411987305
aF-22.17682456970215
aF17.369808197021484
aF-11.027100563049316
aF-131.2643585205078
aF-26.02431869506836
aF-1.1222450733184814
aF63.45545959472656
aF-17.582557678222656
aF-34.87313461303711
aF7.203744888305664
aF-6.459112644195557
aF-31.913875579833984
aF-28.353837966918945
aF17.295766830444336
aF93.91677856445312
aF-70.86652374267578
aF-34.270748138427734
aF4.935283660888672
aF48.81488800048828
aF-33.0423583984375
aF14.113767623901367
aF54.964202880859375
aF-69.61019897460938
aF-25.174598693847656
aF-6.400701999664307
aF-8.020565032958984
aF-30.11927032470703
aF-48.393150329589844
aF-33.30293655395508
aF0.9234026670455933
aF-40.78261184692383
aF57.47889709472656
aF35.31582260131836
aF-27.981063842773438
aF-33.298160552978516
aF-51.290061950683594
aF-28.12701416015625
aF-49.56752395629883
aF-42.942264556884766
aF22.605947494506836
aF8.158564567565918
aF-32.775108337402344
aF-0.9202151894569397
aF-18.727127075195312
aF33.23501968383789
aF-5.153968334197998
aF2.371457815170288
aF44.5980339050293
aF-26.194652557373047
aF-46.093116760253906
aF14.584273338317871
aF46.856014251708984
aF12.596108436584473
aF-52.70088577270508
aF-15.873977661132812
aF-16.284208297729492
aF-7.064549446105957
aF-64.3016586303711
aF-1.38552725315094
aF24.643508911132812
aF-8.119830131530762
aF62.494144439697266
aF74.18694305419922
aF45.65055465698242
aF5.004940032958984
aF-29.980693817138672
aF-40.32609558105469
aF-50.7436637878418
aF-26.019012451171875
aF-10.833673477172852
aF-88.27904510498047
aF14.496095657348633
aF-99.4002456665039
aF-121.22306823730469
aF-45.37664794921875
aF-2.90067195892334
aF-18.201780319213867
aF3.6263930797576904
aF-57.506591796875
aF2.1144087314605713
aF-50.54905319213867
aF-21.299217224121094
aF-8.699299812316895
aa(lp76
I15
aF0.0
aF0.125
aF0.0
aF0.125
aF0.125
aI0
aI0
aI0
aI4
aI3
aI0
aI1
aI0
aI1
ag2
(g6
S'\x00\x00\x00\x84\x0f\xf0\xe9?'
p77
tp78
Rp79
ag2
(g6
S'\x00\x00\x00^\xdb*\xe9?'
p80
tp81
Rp82
ag2
(g6
S'\x00\x00\x00\x84\x80\x88\xe9?'
p83
tp84
Rp85
ag2
(g6
S'\x00\x00\x00\x00ml\xe9?'
p86
tp87
Rp88
aF2.8068501949310303
aF138.58299255371094
aF-69.41734313964844
aF-29.965177536010742
aF-121.78661346435547
aF5.276022434234619
aF-49.890377044677734
aF-57.485633850097656
aF74.7506332397461
aF8.621350288391113
aF-79.11593627929688
aF-8.73190689086914
aF-134.26498413085938
aF-73.70011901855469
aF-19.189823150634766
aF56.10946273803711
aF-32.8416748046875
aF-36.11448287963867
aF30.04974937438965
aF-20.362497329711914
aF-222.65249633789062
aF-42.57780838012695
aF-1.3274955749511719
aF107.17845916748047
aF-28.52775001525879
aF-58.0438232421875
aF9.143394470214844
aF-9.473442077636719
aF-55.94480895996094
aF-47.18130111694336
aF27.143571853637695
aF163.17156982421875
aF-113.7168197631836
aF-56.43629837036133
aF7.776826858520508
aF86.02493286132812
aF-56.32849884033203
aF24.56293296813965
aF94.34490966796875
aF-118.3373031616211
aF-44.305843353271484
aF-10.122209548950195
aF-14.608687400817871
aF-49.99983596801758
aF-82.36106872558594
aF-61.70351028442383
aF3.8435733318328857
aF-67.5267562866211
aF99.21788787841797
aF57.62774658203125
aF-48.00966262817383
aF-56.240272521972656
aF-82.7950439453125
aF-49.448421478271484
aF-82.78282928466797
aF-75.2635498046875
aF39.420310974121094
aF12.518882751464844
aF-59.80765151977539
aF-2.65433406829834
aF-33.61296081542969
aF58.03400802612305
aF-9.253836631774902
aF2.5044820308685303
aF71.39253997802734
aF-45.305084228515625
aF-80.183349609375
aF24.51674461364746
aF81.01287841796875
aF21.697233200073242
aF-85.70812225341797
aF-25.450485229492188
aF-28.033851623535156
aF-9.407628059387207
aF-110.94456481933594
aF-4.462047100067139
aF41.893531799316406
aF-11.085280418395996
aF104.76004028320312
aF126.9215087890625
aF76.60018157958984
aF11.119810104370117
aF-50.43177795410156
aF-68.83623504638672
aF-83.44348907470703
aF-40.41242980957031
aF-17.23885726928711
aF-151.55035400390625
aF30.733755111694336
aF-168.89321899414062
aF-204.304931640625
aF-76.90291595458984
aF-5.212604522705078
aF-27.663663864135742
aF4.8063578605651855
aF-98.55890655517578
aF3.022988796234131
aF-80.47758483886719
aF-37.64179229736328
aF-14.887677192687988
aa(lp89
I13
aF0.0
aF0.0
aF0.07142857142857142
aF0.5
aF0.14285714285714285
aI0
aI0
aI0
aI1
aI1
aI1
aI0
aI0
aI0
ag2
(g6
S'\x00\x00\x00\x10\xe0H\xeb?'
p90
tp91
Rp92
ag2
(g6
S'%I\x92\xc4]3\xeb?'
p93
tp94
Rp95
ag2
(g6
S'\x92$I2\xd8J\xeb?'
p96
tp97
Rp98
ag2
(g6
S'\xdb\xb6m\x0bH9\xeb?'
p99
tp100
Rp101
aF8.796215057373047
aF107.29643249511719
aF-57.72045135498047
aF-20.324186325073242
aF-98.43638610839844
aF16.32367515563965
aF-41.09335708618164
aF-52.05793762207031
aF57.32615280151367
aF13.42935848236084
aF-63.678001403808594
aF-6.099079608917236
aF-113.84256744384766
aF-61.188201904296875
aF-9.78321361541748
aF45.94780731201172
aF-17.978103637695312
aF-25.28020477294922
aF24.408447265625
aF-20.429048538208008
aF-182.0429229736328
aF-27.581207275390625
aF-0.37531185150146484
aF85.4880142211914
aF-18.85866928100586
aF-43.595191955566406
aF1.368980884552002
aF-3.9798178672790527
aF-49.74869918823242
aF-39.17453384399414
aF15.100831985473633
aF140.51620483398438
aF-76.314208984375
aF-44.66543197631836
aF6.533365726470947
aF76.63357543945312
aF-44.89314270019531
aF20.130992889404297
aF80.03447723388672
aF-98.8534164428711
aF-37.480587005615234
aF-4.583582878112793
aF-14.283458709716797
aF-34.974395751953125
aF-66.59720611572266
aF-59.284507751464844
aF8.568684577941895
aF-50.21229553222656
aF81.85953521728516
aF40.18387985229492
aF-40.638267517089844
aF-44.81783676147461
aF-57.15758514404297
aF-43.00328063964844
aF-65.9227523803711
aF-64.82296752929688
aF31.81578826904297
aF7.648169040679932
aF-56.63513946533203
aF-0.08778315782546997
aF-29.928438186645508
aF49.406429290771484
aF-8.918968200683594
aF-1.184006690979004
aF49.60879135131836
aF-38.917842864990234
aF-70.41234588623047
aF19.178491592407227
aF70.38224029541016
aF18.263486862182617
aF-61.51899719238281
aF-13.415750503540039
aF-26.319847106933594
aF-1.233975887298584
aF-96.04139709472656
aF-10.815011024475098
aF30.983226776123047
aF-3.502004384994507
aF83.16908264160156
aF107.02965545654297
aF61.05482482910156
aF13.544381141662598
aF-43.44483947753906
aF-58.273841857910156
aF-59.823753356933594
aF-25.050575256347656
aF-9.270712852478027
aF-126.24095153808594
aF37.18751525878906
aF-135.62953186035156
aF-162.86276245117188
aF-62.85451889038086
aF-3.595425844192505
aF-12.089111328125
aF-0.49550193548202515
aF-81.36673736572266
aF3.0103797912597656
aF-51.91162109375
aF-32.71955871582031
aF-12.365118026733398
aa(lp102
I0
aF0.0
aF0.0
aF0.0
aF0.0
aF0.0
aI0
aI0
aI0
aI0
aI0
aI0
aI0
aI0
aI0
aF0.0
aF0.0
aF0.0
aF0.0
aF0.0
aF0.0
aF0.0
aF0.0
aF0.0
aF0.0
aF0.0
aF0.0
aF0.0
aF0.0
aF0.0
aF0.0
aF0.0
aF0.0
aF0.0
aF0.0
aF0.0
aF0.0
aF0.0
aF0.0
aF0.0
aF0.0
aF0.0
aF0.0
aF0.0
aF0.0
aF0.0
aF0.0
aF0.0
aF0.0
aF0.0
aF0.0
aF0.0
aF0.0
aF0.0
aF0.0
aF0.0
aF0.0
aF0.0
aF0.0
aF0.0
aF0.0
aF0.0
aF0.0
aF0.0
aF0.0
aF0.0
aF0.0
aF0.0
aF0.0
aF0.0
aF0.0
aF0.0
aF0.0
aF0.0
aF0.0
aF0.0
aF0.0
aF0.0
aF0.0
aF0.0
aF0.0
aF0.0
aF0.0
aF0.0
aF0.0
aF0.0
aF0.0
aF0.0
aF0.0
aF0.0
aF0.0
aF0.0
aF0.0
aF0.0
aF0.0
aF0.0
aF0.0
aF0.0
aF0.0
aF0.0
aF0.0
aF0.0
aF0.0
aF0.0
aF0.0
aF0.0
aF0.0
aF0.0
aF0.0
aF0.0
aF0.0
aF0.0
aF0.0
aF0.0
aF0.0
aF0.0
aF0.0
aF0.0
aF0.0
aa(lp103
I13
aF0.0
aF0.0
aF0.0
aF0.42857142857142855
aF0.14285714285714285
aI0
aI2
aI2
aI3
aI7
aI0
aI0
aI0
aI0
ag2
(g6
S'%I\x92\xd4\xe0+\xeb?'
p104
tp105
Rp106
ag2
(g6
S'\xdb\xb6m\xab\x87\xf1\xea?'
p107
tp108
Rp109
ag2
(g6
S'\xb7m\xdb\xd69"\xeb?'
p110
tp111
Rp112
ag2
(g6
S'\x92$Ib\x02\xe1\xea?'
p113
tp114
Rp115
aF2.469916820526123
aF76.10713195800781
aF-38.75714874267578
aF-15.41833782196045
aF-68.15044403076172
aF5.913703918457031
aF-28.2681884765625
aF-32.826499938964844
aF40.57968521118164
aF6.363680839538574
aF-44.15862274169922
aF-4.9060187339782715
aF-75.55280303955078
aF-41.105770111083984
aF-9.442118644714355
aF31.70734214782715
aF-16.350046157836914
aF-19.290937423706055
aF16.80788803100586
aF-12.194022178649902
aF-123.27721405029297
aF-23.006149291992188
aF-0.12244056910276413
aF59.532005310058594
aF-14.961690902709961
aF-31.7747802734375
aF3.6702041625976562
aF-4.335591793060303
aF-31.734739303588867
aF-25.750843048095703
aF13.827402114868164
aF92.43380737304688
aF-59.738990783691406
aF-30.936717987060547
aF3.876734972000122
aF49.6932373046875
aF-31.324993133544922
aF13.804519653320312
aF53.22263717651367
aF-66.15704345703125
aF-25.43805503845215
aF-5.235064506530762
aF-8.352273941040039
aF-27.115074157714844
aF-45.60917663574219
aF-36.80760955810547
aF3.3730108737945557
aF-36.269432067871094
aF55.758914947509766
aF30.274242401123047
aF-26.753679275512695
aF-31.037355422973633
aF-43.70017623901367
aF-28.435832977294922
aF-44.974693298339844
aF-42.81697463989258
aF22.715364456176758
aF6.832770824432373
aF-35.26805877685547
aF-1.56325101852417
aF-19.380210876464844
aF32.964019775390625
aF-5.143070220947266
aF0.669960618019104
aF37.56619644165039
aF-25.857845306396484
aF-45.40119934082031
aF13.015277862548828
aF45.30876159667969
aF12.66989803314209
aF-46.156707763671875
aF-13.327110290527344
aF-15.9777250289917
aF-4.149044036865234
aF-62.97282791137695
aF-3.7940850257873535
aF23.057851791381836
aF-4.375057220458984
aF57.79798889160156
aF70.8920669555664
aF42.30880355834961
aF7.438542366027832
aF-28.3359375
aF-38.357086181640625
aF-44.767799377441406
aF-20.673654556274414
aF-8.993717193603516
aF-84.79117584228516
aF20.60495948791504
aF-93.70547485351562
aF-112.66594696044922
aF-42.64239501953125
aF-2.9340527057647705
aF-13.492622375488281
aF1.9866397380828857
aF-55.04051971435547
aF1.3751620054244995
aF-41.88939666748047
aF-21.645328521728516
aF-8.199984550476074
aa(lp116
I13
aF0.0
aF0.07142857142857142
aF0.0
aF0.5
aF0.14285714285714285
aI0
aI2
aI1
aI2
aI4
aI0
aI0
aI0
aI1
ag2
(g6
S'I\x92$\t\xc2\x0c\xeb?'
p117
tp118
Rp119
ag2
(g6
S'%I\x92\x94g!\xeb?'
p120
tp121
Rp122
ag2
(g6
S'I\x92$i+=\xeb?'
p123
tp124
Rp125
ag2
(g6
S'n\xdb\xb6mO\x02\xeb?'
p126
tp127
Rp128
aF4.117898941040039
aF74.2637939453125
aF-37.835426330566406
aF-15.598453521728516
aF-68.16767120361328
aF7.557614803314209
aF-27.899765014648438
aF-33.72527313232422
aF40.567527770996094
aF6.338376998901367
aF-44.052581787109375
aF-4.396048069000244
aF-76.05957794189453
aF-41.85976028442383
aF-9.256473541259766
aF31.497957229614258
aF-15.945327758789062
aF-17.87649154663086
aF16.42728614807129
aF-11.271507263183594
aF-123.64892578125
aF-21.500783920288086
aF-0.881578803062439
aF58.57994079589844
aF-14.289213180541992
aF-30.9957218170166
aF4.134954929351807
aF-4.073087692260742
aF-31.648683547973633
aF-26.8962345123291
aF13.342117309570312
aF91.79645538330078
aF-57.697410583496094
aF-30.90483856201172
aF4.2549214363098145
aF50.67219924926758
aF-30.19550895690918
aF13.851400375366211
aF52.03807067871094
aF-66.37950897216797
aF-25.237655639648438
aF-4.138286113739014
aF-7.712749004364014
aF-25.429710388183594
aF-45.89757537841797
aF-36.28339767456055
aF4.330893516540527
aF-35.913875579833984
aF54.733890533447266
aF28.972265243530273
aF-26.9506778717041
aF-30.824254989624023
aF-43.19723129272461
aF-27.75320816040039
aF-45.43015670776367
aF-42.20681381225586
aF22.025733947753906
aF6.8104705810546875
aF-35.11542892456055
aF-1.095462441444397
aF-18.297222137451172
aF33.02455139160156
aF-4.940453052520752
aF0.1508234441280365
aF37.3510627746582
aF-26.02416229248047
aF-45.31842803955078
aF12.430522918701172
aF46.06846237182617
aF11.832636833190918
aF-44.30747985839844
aF-11.598217964172363
aF-17.6503963470459
aF-2.89902400970459
aF-62.624122619628906
aF-4.917647361755371
aF21.931564331054688
aF-4.719786167144775
aF56.60504913330078
aF70.90278625488281
aF41.049861907958984
aF7.557988166809082
aF-28.751821517944336
aF-37.63579177856445
aF-44.00288391113281
aF-20.281158447265625
aF-7.5370378494262695
aF-83.4139175415039
aF19.732898712158203
aF-93.02789306640625
aF-110.96437072753906
aF-42.39656066894531
aF-1.3949172496795654
aF-11.44347858428955
aF1.3316786289215088
aF-55.329891204833984
aF2.1857411861419678
aF-40.43223571777344
aF-22.28215980529785
aF-7.663273811340332
aa(lp129
I13
aF0.0
aF0.07142857142857142
aF0.0
aF0.35714285714285715
aF0.14285714285714285
aI0
aI1
aI0
aI2
aI4
aI0
aI1
aI0
aI0
ag2
(g6
S'n\xdb\xb6\xcd\xd3b\xeb?'
p130
tp131
Rp132
ag2
(g6
S'I\x92$9\xbe\x11\xeb?'
p133
tp134
Rp135
ag2
(g6
S'I\x92$i\xe1W\xeb?'
p136
tp137
Rp138
ag2
(g6
S'\x92$I\xa2\x92#\xeb?'
p139
tp140
Rp141
aF9.863649368286133
aF116.88426208496094
aF-64.60943603515625
aF-20.36872100830078
aF-107.68709564208984
aF20.66119384765625
aF-45.892059326171875
aF-57.68925476074219
aF62.129791259765625
aF17.054590225219727
aF-69.14095306396484
aF-7.569664001464844
aF-126.07977294921875
aF-66.23302459716797
aF-8.571414947509766
aF51.3029899597168
aF-16.70460319519043
aF-27.537269592285156
aF26.771018981933594
aF-25.03354263305664
aF-198.74380493164062
aF-29.54022979736328
aF0.855262041091919
aF94.02487182617188
aF-19.907594680786133
aF-47.144737243652344
aF-0.818903923034668
aF-3.7842915058135986
aF-56.148109436035156
aF-41.697914123535156
aF14.479975700378418
aF157.2456512451172
aF-79.80625915527344
aF-47.491355895996094
aF6.632148265838623
aF84.97258758544922
aF-50.13945770263672
aF22.378517150878906
aF89.4849853515625
aF-108.54381561279297
aF-41.96955108642578
aF-5.315996170043945
aF-17.411012649536133
aF-38.35745620727539
aF-72.86666870117188
aF-68.97254180908203
aF10.52823257446289
aF-53.38022994995117
aF91.4453353881836
aF43.11280822753906
aF-44.41380310058594
aF-49.01327133178711
aF-59.51594161987305
aF-49.152530670166016
aF-71.40558624267578
aF-73.130126953125
aF36.223777770996094
aF7.128193378448486
aF-65.62600708007812
aF-0.9087780117988586
aF-35.00893020629883
aF55.4822883605957
aF-10.14511489868164
aF-1.8992435932159424
aF51.46434783935547
aF-42.81816864013672
aF-78.7945785522461
aF21.63768196105957
aF78.02164459228516
aF20.50331687927246
aF-66.01687622070312
aF-14.513319969177246
aF-27.65254783630371
aF-0.3998476266860962
aF-107.01187896728516
aF-12.419367790222168
aF34.12226104736328
aF-1.2613184452056885
aF91.2520523071289
aF118.13607788085938
aF67.22632598876953
aF16.568496704101562
aF-47.42366409301758
aF-65.20687866210938
aF-63.700233459472656
aF-24.81825828552246
aF-10.39494514465332
aF-140.18861389160156
aF46.533023834228516
aF-148.9076385498047
aF-178.5594024658203
aF-69.16487121582031
aF-5.9536542892456055
aF-11.8809175491333
aF-1.3300237655639648
aF-89.08637237548828
aF2.193028211593628
aF-53.59281921386719
aF-36.34794235229492
aF-14.179519653320312
aa(lp142
I12
aF0.0
aF0.0
aF0.07692307692307693
aF0.46153846153846156
aF0.07692307692307693
aI0
aI1
aI0
aI4
aI5
aI1
aI0
aI0
aI0
ag2
(g6
S'\x8a\x9d\xd8I\t\xbe\xea?'
p143
tp144
Rp145
ag2
(g6
S'\xec\xc4N\x8ch\xad\xea?'
p146
tp147
Rp148
ag2
(g6
S';\xb1\x13\x1b\x88\xe5\xea?'
p149
tp150
Rp151
ag2
(g6
S';\xb1\x13\xfb\x16\xaa\xea?'
p152
tp153
Rp154
aF5.319423198699951
aF109.02417755126953
aF-56.86177444458008
aF-21.957181930541992
aF-97.7306137084961
aF9.969560623168945
aF-40.425018310546875
aF-49.20615768432617
aF58.06407165527344
aF10.3124361038208
aF-63.215694427490234
aF-6.576321601867676
aF-110.00621032714844
aF-59.94475555419922
aF-12.593091011047363
aF45.36779022216797
aF-21.895709991455078
aF-27.62684440612793
aF23.86907386779785
aF-18.642927169799805
aF-179.833740234375
aF-31.097749710083008
aF-0.6352325677871704
aF85.75469970703125
aF-21.063522338867188
aF-44.89491653442383
aF4.659219741821289
aF-5.910435199737549
aF-47.18476486206055
aF-38.810768127441406
aF17.985300064086914
aF135.461669921875
aF-83.79963684082031
aF-45.12369155883789
aF6.331090927124023
aF72.33911895751953
aF-45.16596984863281
aF19.67716407775879
aF78.04835510253906
aF-96.69560241699219
aF-36.190582275390625
aF-6.501412868499756
aF-13.37112808227539
aF-37.773746490478516
aF-66.43990325927734
aF-53.9277458190918
aF5.314943790435791
aF-52.17580795288086
aF80.57402801513672
aF43.526268005371094
aF-39.183685302734375
aF-45.27558135986328
aF-61.78030014038086
aF-41.596134185791016
aF-66.36824798583984
aF-62.58867263793945
aF31.798625946044922
aF8.55250358581543
aF-52.37754821777344
aF-0.9159222841262817
aF-28.560951232910156
aF47.87381362915039
aF-8.105695724487305
aF0.5608027577400208
aF53.78666687011719
aF-37.325584411621094
aF-67.3099594116211
aF19.553119659423828
aF67.58758544921875
aF17.70064926147461
aF-65.43840026855469
aF-16.824689865112305
aF-24.116912841796875
aF-4.397310733795166
aF-92.48257446289062
aF-6.955463409423828
aF32.445152282714844
aF-6.124621868133545
aF83.31233978271484
aF104.68373107910156
aF61.13724136352539
aF11.17281723022461
aF-41.88771057128906
aF-56.988216400146484
aF-63.016197204589844
aF-28.846920013427734
aF-11.80993366241455
aF-123.60530090332031
aF30.972915649414062
aF-135.6353302001953
aF-163.3863067626953
aF-62.21479415893555
aF-3.9763295650482178
aF-16.694517135620117
aF1.5509799718856812
aF-79.7379379272461
aF2.520658016204834
aF-58.13763427734375
aF-31.45915412902832
aF-12.303655624389648
aa(lp155
I15
aF0.0
aF0.0625
aF0.0
aF0.75
aF0.0
aI0
aI1
aI1
aI1
aI7
aI0
aI0
aI0
aI1
ag2
(g6
S'\x00\x00\x00\xbc\xdd\xee\xeb?'
p156
tp157
Rp158
ag2
(g6
S'\x00\x00\x00^\x1b\xd5\xeb?'
p159
tp160
Rp161
ag2
(g6
S'\x00\x00\x00\x82D\x85\xeb?'
p162
tp163
Rp164
ag2
(g6
S'\x00\x00\x00\x92\xe3T\xeb?'
p165
tp166
Rp167
aF4.253445148468018
aF91.3807601928711
aF-46.83869171142578
aF-18.848501205444336
aF-81.87712860107422
aF7.422945022583008
aF-33.543331146240234
aF-40.366920471191406
aF49.10481643676758
aF7.653636455535889
aF-53.27385711669922
aF-5.261992931365967
aF-91.20500183105469
aF-50.00991439819336
aF-11.419693946838379
aF37.420963287353516
aF-19.979047775268555
aF-23.03145980834961
aF19.66798210144043
aF-14.63991928100586
aF-149.75181579589844
aF-26.542011260986328
aF-0.6374600529670715
aF71.75984191894531
aF-18.17338752746582
aF-37.86468505859375
aF4.989360332489014
aF-5.258050441741943
aF-38.292564392089844
aF-32.44198226928711
aF16.61297607421875
aF111.64724731445312
aF-71.85870361328125
aF-37.84712600708008
aF4.998398780822754
aF59.92680358886719
aF-37.031856536865234
aF16.195573806762695
aF64.0159912109375
aF-80.15548706054688
aF-30.123302459716797
aF-5.371893882751465
aF-9.838630676269531
aF-31.844011306762695
aF-55.24566650390625
aF-43.566505432128906
aF3.840662956237793
aF-43.8824577331543
aF66.38368225097656
aF36.27123260498047
aF-32.66386795043945
aF-38.05445861816406
aF-52.75841522216797
aF-33.872154235839844
aF-55.46459197998047
aF-50.877227783203125
aF26.227638244628906
aF8.247917175292969
aF-42.04662322998047
aF-0.7551708221435547
aF-22.828454971313477
aF39.32957458496094
aF-6.15203857421875
aF0.9651596546173096
aF45.94941711425781
aF-31.071577072143555
aF-54.81440734863281
aF15.829984664916992
aF55.52720642089844
aF14.75544261932373
aF-55.521766662597656
aF-15.040955543518066
aF-20.610820770263672
aF-4.06366491317749
aF-76.10099792480469
aF-5.370741844177246
aF27.17888832092285
aF-6.224038124084473
aF69.21930694580078
aF86.77911376953125
aF51.14667510986328
aF8.670639038085938
aF-34.83086395263672
aF-46.70654296875
aF-53.79308319091797
aF-25.379732131958008
aF-10.440227508544922
aF-101.9324951171875
aF23.348474502563477
aF-112.90480041503906
aF-136.2919158935547
aF-51.712547302246094
aF-2.5101239681243896
aF-14.922652244567871
aF1.8903142213821411
aF-66.57048034667969
aF2.2451536655426025
aF-50.250972747802734
aF-26.067914962768555
aF-10.096651077270508
aa(lp168
I10
aF0.0
aF0.09090909090909091
aF0.0
aF0.0
aF0.45454545454545453
aI0
aI1
aI1
aI1
aI6
aI0
aI0
aI0
aI0
ag2
(g6
S'\xd1E\x17\x1d\xee\xf1\xe9?'
p169
tp170
Rp171
ag2
(g6
S'\xe9\xa2\x8b\x8e\xb8\xbe\xe9?'
p172
tp173
Rp174
ag2
(g6
S'F\x17]\xb4\xce\xd9\xe9?'
p175
tp176
Rp177
ag2
(g6
S'\xa3\x8b.\x1aI\xfa\xe9?'
p178
tp179
Rp180
aF4.346564769744873
aF86.32966613769531
aF-44.02206039428711
aF-18.198644638061523
aF-78.38938903808594
aF7.932034492492676
aF-31.917652130126953
aF-38.663265228271484
aF46.417510986328125
aF7.382028102874756
aF-50.706974029541016
aF-5.026482582092285
aF-87.06832122802734
aF-48.017391204833984
aF-10.867237091064453
aF36.02789306640625
aF-18.636022567749023
aF-21.24333953857422
aF19.184144973754883
aF-13.072000503540039
aF-142.8616180419922
aF-25.11555290222168
aF-0.5420504808425903
aF67.74417114257812
aF-16.822635650634766
aF-35.86664581298828
aF4.657843112945557
aF-4.7686262130737305
aF-36.39360809326172
aF-30.961118698120117
aF15.802839279174805
aF106.21568298339844
aF-67.36885833740234
aF-36.241851806640625
aF5.065422058105469
aF57.880672454833984
aF-35.12727737426758
aF15.760103225708008
aF60.634864807128906
aF-76.56844329833984
aF-28.760927200317383
aF-4.944709300994873
aF-9.447229385375977
aF-29.679637908935547
aF-52.709571838378906
aF-41.63370895385742
aF4.4596052169799805
aF-41.53829574584961
aF63.04396438598633
aF33.833560943603516
aF-31.208932876586914
aF-35.4995002746582
aF-50.084617614746094
aF-32.24386215209961
aF-52.31640625
aF-48.732696533203125
aF25.270835876464844
aF7.807738780975342
aF-40.259334564208984
aF-1.0567947626113892
aF-21.248167037963867
aF37.8154182434082
aF-6.189791202545166
aF0.5890921354293823
aF43.24990463256836
aF-29.870285034179688
aF-52.272239685058594
aF14.74229621887207
aF52.995811462402344
aF13.893115043640137
aF-51.798301696777344
aF-13.581963539123535
aF-20.254634857177734
aF-3.714731216430664
aF-72.27758026123047
aF-5.4614458084106445
aF25.502079010009766
aF-5.6179938316345215
aF65.77243041992188
aF82.052001953125
aF48.01723861694336
aF8.315075874328613
aF-33.37760925292969
aF-43.9610710144043
aF-50.94026184082031
aF-23.756492614746094
aF-8.989394187927246
aF-96.76638793945312
aF22.637557983398438
aF-107.4213638305664
aF-128.77597045898438
aF-49.04719161987305
aF-1.7348544597625732
aF-13.592309951782227
aF1.6614402532577515
aF-63.929508209228516
aF2.3471148014068604
aF-47.15504837036133
aF-25.42815399169922
aF-9.169892311096191
aa(lp181
I15
aF0.0
aF0.125
aF0.0
aF0.375
aF0.25
aI0
aI1
aI1
aI4
aI6
aI1
aI0
aI1
aI1
ag2
(g6
S'\x00\x00\x00\xd8\xcf\xc4\xe7?'
p182
tp183
Rp184
ag2
(g6
S'\x00\x00\x00\x92\x83\xda\xe7?'
p185
tp186
Rp187
ag2
(g6
S'\x00\x00\x000\xb1\xb3\xe7?'
p188
tp189
Rp190
ag2
(g6
S'\x00\x00\x00`?\xd0\xe7?'
p191
tp192
Rp193
aF3.7173514366149902
aF57.73057174682617
aF-30.766319274902344
aF-10.445670127868652
aF-52.54856491088867
aF8.390487670898438
aF-22.42653465270996
aF-27.029388427734375
aF30.1729736328125
aF7.375948429107666
aF-34.139060974121094
aF-3.3474464416503906
aF-59.821632385253906
aF-32.15397644042969
aF-5.309727191925049
aF24.673383712768555
aF-9.939604759216309
aF-13.98250961303711
aF13.286317825317383
aF-10.863224029541016
aF-95.74093627929688
aF-15.92527961730957
aF0.13087643682956696
aF45.987464904785156
aF-10.289915084838867
aF-23.56441879272461
aF0.761192798614502
aF-2.106879472732544
aF-26.197969436645508
aF-20.072267532348633
aF8.37490463256836
aF74.26876831054688
aF-41.34415817260742
aF-23.90337562561035
aF3.112069845199585
aF40.75806427001953
aF-24.14771270751953
aF10.637930870056152
aF42.6991081237793
aF-52.22711944580078
aF-20.176029205322266
aF-3.018951892852783
aF-7.585008144378662
aF-19.30683135986328
aF-35.25593185424805
aF-31.80823516845703
aF4.200808525085449
aF-26.527109146118164
aF43.71255111694336
aF21.335071563720703
aF-21.1954288482666
aF-23.669918060302734
aF-30.590869903564453
aF-23.0820369720459
aF-34.48200225830078
aF-34.673423767089844
aF17.701316833496094
aF4.695574760437012
aF-30.196828842163086
aF-0.402334988117218
aF-16.204153060913086
aF26.10529136657715
aF-4.710559844970703
aF-0.37958744168281555
aF26.562835693359375
aF-20.787731170654297
aF-37.10002136230469
aF9.961884498596191
aF36.61842346191406
aF10.517084121704102
aF-33.806949615478516
aF-8.153505325317383
aF-13.428069114685059
aF-1.2273428440093994
aF-50.904449462890625
aF-5.244861125946045
aF17.15928077697754
aF-1.4438958168029785
aF44.45310974121094
aF56.49828338623047
aF32.87617111206055
aF7.337181091308594
aF-22.943748474121094
aF-30.649124145507812
aF-31.928987503051758
aF-13.46743106842041
aF-5.620268821716309
aF-67.07179260253906
aF20.409719467163086
aF-72.58572387695312
aF-86.75142669677734
aF-33.20119094848633
aF-2.3242881298065186
aF-7.130626678466797
aF-0.015834368765354156
aF-42.92036437988281
aF1.0243284702301025
aF-28.100034713745117
aF-17.280498504638672
aF-6.610235691070557
aa(lp194
I0
aF0.0
aF0.0
aF0.0
aF0.0
aF0.0
aI0
aI0
aI0
aI0
aI0
aI0
aI0
aI0
aI0
aF0.0
aF0.0
aF0.0
aF0.0
aF0.0
aF0.0
aF0.0
aF0.0
aF0.0
aF0.0
aF0.0
aF0.0
aF0.0
aF0.0
aF0.0
aF0.0
aF0.0
aF0.0
aF0.0
aF0.0
aF0.0
aF0.0
aF0.0
aF0.0
aF0.0
aF0.0
aF0.0
aF0.0
aF0.0
aF0.0
aF0.0
aF0.0
aF0.0
aF0.0
aF0.0
aF0.0
aF0.0
aF0.0
aF0.0
aF0.0
aF0.0
aF0.0
aF0.0
aF0.0
aF0.0
aF0.0
aF0.0
aF0.0
aF0.0
aF0.0
aF0.0
aF0.0
aF0.0
aF0.0
aF0.0
aF0.0
aF0.0
aF0.0
aF0.0
aF0.0
aF0.0
aF0.0
aF0.0
aF0.0
aF0.0
aF0.0
aF0.0
aF0.0
aF0.0
aF0.0
aF0.0
aF0.0
aF0.0
aF0.0
aF0.0
aF0.0
aF0.0
aF0.0
aF0.0
aF0.0
aF0.0
aF0.0
aF0.0
aF0.0
aF0.0
aF0.0
aF0.0
aF0.0
aF0.0
aF0.0
aF0.0
aF0.0
aF0.0
aF0.0
aF0.0
aF0.0
aF0.0
aF0.0
aF0.0
aF0.0
aF0.0
aF0.0
aF0.0
aF0.0
aa(lp195
I0
aF0.0
aF0.0
aF0.0
aF0.0
aF0.0
aI0
aI0
aI0
aI0
aI0
aI0
aI0
aI0
aI0
aF0.0
aF0.0
aF0.0
aF0.0
aF0.0
aF0.0
aF0.0
aF0.0
aF0.0
aF0.0
aF0.0
aF0.0
aF0.0
aF0.0
aF0.0
aF0.0
aF0.0
aF0.0
aF0.0
aF0.0
aF0.0
aF0.0
aF0.0
aF0.0
aF0.0
aF0.0
aF0.0
aF0.0
aF0.0
aF0.0
aF0.0
aF0.0
aF0.0
aF0.0
aF0.0
aF0.0
aF0.0
aF0.0
aF0.0
aF0.0
aF0.0
aF0.0
aF0.0
aF0.0
aF0.0
aF0.0
aF0.0
aF0.0
aF0.0
aF0.0
aF0.0
aF0.0
aF0.0
aF0.0
aF0.0
aF0.0
aF0.0
aF0.0
aF0.0
aF0.0
aF0.0
aF0.0
aF0.0
aF0.0
aF0.0
aF0.0
aF0.0
aF0.0
aF0.0
aF0.0
aF0.0
aF0.0
aF0.0
aF0.0
aF0.0
aF0.0
aF0.0
aF0.0
aF0.0
aF0.0
aF0.0
aF0.0
aF0.0
aF0.0
aF0.0
aF0.0
aF0.0
aF0.0
aF0.0
aF0.0
aF0.0
aF0.0
aF0.0
aF0.0
aF0.0
aF0.0
aF0.0
aF0.0
aF0.0
aF0.0
aF0.0
aF0.0
aF0.0
aF0.0
aa(lp196
I0
aF0.0
aF0.0
aF0.0
aF0.0
aF0.0
aI0
aI0
aI0
aI0
aI0
aI0
aI0
aI0
aI0
aF0.0
aF0.0
aF0.0
aF0.0
aF0.0
aF0.0
aF0.0
aF0.0
aF0.0
aF0.0
aF0.0
aF0.0
aF0.0
aF0.0
aF0.0
aF0.0
aF0.0
aF0.0
aF0.0
aF0.0
aF0.0
aF0.0
aF0.0
aF0.0
aF0.0
aF0.0
aF0.0
aF0.0
aF0.0
aF0.0
aF0.0
aF0.0
aF0.0
aF0.0
aF0.0
aF0.0
aF0.0
aF0.0
aF0.0
aF0.0
aF0.0
aF0.0
aF0.0
aF0.0
aF0.0
aF0.0
aF0.0
aF0.0
aF0.0
aF0.0
aF0.0
aF0.0
aF0.0
aF0.0
aF0.0
aF0.0
aF0.0
aF0.0
aF0.0
aF0.0
aF0.0
aF0.0
aF0.0
aF0.0
aF0.0
aF0.0
aF0.0
aF0.0
aF0.0
aF0.0
aF0.0
aF0.0
aF0.0
aF0.0
aF0.0
aF0.0
aF0.0
aF0.0
aF0.0
aF0.0
aF0.0
aF0.0
aF0.0
aF0.0
aF0.0
aF0.0
aF0.0
aF0.0
aF0.0
aF0.0
aF0.0
aF0.0
aF0.0
aF0.0
aF0.0
aF0.0
aF0.0
aF0.0
aF0.0
aF0.0
aF0.0
aF0.0
aF0.0
aF0.0
aa(lp197
I0
aF0.0
aF0.0
aF0.0
aF0.0
aF0.0
aI0
aI0
aI0
aI0
aI0
aI0
aI0
aI0
aI0
aF0.0
aF0.0
aF0.0
aF0.0
aF0.0
aF0.0
aF0.0
aF0.0
aF0.0
aF0.0
aF0.0
aF0.0
aF0.0
aF0.0
aF0.0
aF0.0
aF0.0
aF0.0
aF0.0
aF0.0
aF0.0
aF0.0
aF0.0
aF0.0
aF0.0
aF0.0
aF0.0
aF0.0
aF0.0
aF0.0
aF0.0
aF0.0
aF0.0
aF0.0
aF0.0
aF0.0
aF0.0
aF0.0
aF0.0
aF0.0
aF0.0
aF0.0
aF0.0
aF0.0
aF0.0
aF0.0
aF0.0
aF0.0
aF0.0
aF0.0
aF0.0
aF0.0
aF0.0
aF0.0
aF0.0
aF0.0
aF0.0
aF0.0
aF0.0
aF0.0
aF0.0
aF0.0
aF0.0
aF0.0
aF0.0
aF0.0
aF0.0
aF0.0
aF0.0
aF0.0
aF0.0
aF0.0
aF0.0
aF0.0
aF0.0
aF0.0
aF0.0
aF0.0
aF0.0
aF0.0
aF0.0
aF0.0
aF0.0
aF0.0
aF0.0
aF0.0
aF0.0
aF0.0
aF0.0
aF0.0
aF0.0
aF0.0
aF0.0
aF0.0
aF0.0
aF0.0
aF0.0
aF0.0
aF0.0
aF0.0
aF0.0
aF0.0
aF0.0
aF0.0
aa(lp198
I10
aF0.0
aF0.09090909090909091
aF0.0
aF0.6363636363636364
aF0.0
aI0
aI2
aI1
aI2
aI1
aI1
aI1
aI0
aI0
ag2
(g6
S'\xa3\x8b.\xfa}\x12\xe7?'
p199
tp200
Rp201
ag2
(g6
S'\xa3\x8b.\x9a\x84\x04\xe7?'
p202
tp203
Rp204
ag2
(g6
S't\xd1E7\x94\xfd\xe6?'
p205
tp206
Rp207
ag2
(g6
S'\xe9\xa2\x8b\x8e\xd9\xfc\xe6?'
p208
tp209
Rp210
aF2.7068352699279785
aF55.23090362548828
aF-27.59198760986328
aF-12.229203224182129
aF-50.315608978271484
aF4.380268573760986
aF-20.365217208862305
aF-24.361690521240234
aF30.478710174560547
aF3.7838220596313477
aF-32.546470642089844
aF-3.230565071105957
aF-56.29741287231445
aF-31.175697326660156
aF-7.651867389678955
aF23.324596405029297
aF-12.588249206542969
aF-13.209535598754883
aF12.069793701171875
aF-7.792762756347656
aF-91.71063232421875
aF-16.06538963317871
aF-0.8301072120666504
aF43.18581771850586
aF-10.766364097595215
aF-23.269487380981445
aF3.6607112884521484
aF-3.399923086166382
aF-22.95131492614746
aF-20.22971534729004
aF10.463614463806152
aF66.98939514160156
aF-44.0960693359375
aF-22.922592163085938
aF3.3757286071777344
aF36.83633041381836
aF-22.26546859741211
aF10.335874557495117
aF38.11283874511719
aF-49.27740478515625
aF-18.48432731628418
aF-3.2017765045166016
aF-5.41892671585083
aF-18.804119110107422
aF-33.962547302246094
aF-25.61441421508789
aF2.969285011291504
aF-26.958826065063477
aF40.196903228759766
aF21.96906089782715
aF-19.882604598999023
aF-22.6657657623291
aF-33.00679016113281
aF-20.00925064086914
aF-33.74596405029297
aF-30.604185104370117
aF16.025188446044922
aF5.046510696411133
aF-24.970773696899414
aF-0.7078425884246826
aF-13.056262969970703
aF24.367048263549805
aF-3.385218620300293
aF0.40512847900390625
aF28.488536834716797
aF-19.092660903930664
aF-33.045475006103516
aF9.302145004272461
aF33.91416931152344
aF8.475701332092285
aF-33.073707580566406
aF-8.856040954589844
aF-12.925975799560547
aF-2.7381443977355957
aF-45.85818099975586
aF-3.3193552494049072
aF15.888723373413086
aF-4.077765464782715
aF42.277442932128906
aF51.873355865478516
aF30.316925048828125
aF5.012425899505615
aF-21.136154174804688
aF-27.482284545898438
aF-33.27745056152344
aF-15.652144432067871
aF-5.790765285491943
aF-61.37018585205078
aF13.095043182373047
aF-68.61143493652344
aF-82.29522705078125
aF-31.464923858642578
aF-0.9322398900985718
aF-9.446921348571777
aF1.4139761924743652
aF-40.991249084472656
aF2.022686719894409
aF-31.063720703125
aF-16.19578742980957
aF-5.6141791343688965
aa(lp211
I0
aF0.0
aF0.0
aF0.0
aF0.0
aF0.0
aI0
aI0
aI0
aI0
aI0
aI0
aI0
aI0
aI0
aF0.0
aF0.0
aF0.0
aF0.0
aF0.0
aF0.0
aF0.0
aF0.0
aF0.0
aF0.0
aF0.0
aF0.0
aF0.0
aF0.0
aF0.0
aF0.0
aF0.0
aF0.0
aF0.0
aF0.0
aF0.0
aF0.0
aF0.0
aF0.0
aF0.0
aF0.0
aF0.0
aF0.0
aF0.0
aF0.0
aF0.0
aF0.0
aF0.0
aF0.0
aF0.0
aF0.0
aF0.0
aF0.0
aF0.0
aF0.0
aF0.0
aF0.0
aF0.0
aF0.0
aF0.0
aF0.0
aF0.0
aF0.0
aF0.0
aF0.0
aF0.0
aF0.0
aF0.0
aF0.0
aF0.0
aF0.0
aF0.0
aF0.0
aF0.0
aF0.0
aF0.0
aF0.0
aF0.0
aF0.0
aF0.0
aF0.0
aF0.0
aF0.0
aF0.0
aF0.0
aF0.0
aF0.0
aF0.0
aF0.0
aF0.0
aF0.0
aF0.0
aF0.0
aF0.0
aF0.0
aF0.0
aF0.0
aF0.0
aF0.0
aF0.0
aF0.0
aF0.0
aF0.0
aF0.0
aF0.0
aF0.0
aF0.0
aF0.0
aF0.0
aF0.0
aF0.0
aF0.0
aF0.0
aF0.0
aF0.0
aF0.0
aF0.0
aF0.0
aF0.0
aa(lp212
I10
aF0.0
aF0.0
aF0.18181818181818182
aF0.45454545454545453
aF0.09090909090909091
aI0
aI1
aI0
aI1
aI6
aI0
aI0
aI0
aI0
ag2
(g6
S'\x8c.\xbah\x03\x81\xe9?'
p213
tp214
Rp215
ag2
(g6
S'\x00\x00\x00\xc0\xa6\xeb\xe9?'
p216
tp217
Rp218
ag2
(g6
S'\xa3\x8b.\xba\xcf\x04\xea?'
p219
tp220
Rp221
ag2
(g6
S'\x00\x00\x00\x80u\xb0\xe9?'
p222
tp223
Rp224
aF3.660370349884033
aF55.729454040527344
aF-29.051605224609375
aF-11.45315170288086
aF-51.734375
aF6.979326248168945
aF-21.441707611083984
aF-26.32593536376953
aF30.043779373168945
aF5.701003074645996
aF-33.35710525512695
aF-3.1646618843078613
aF-57.334686279296875
aF-31.7797908782959
aF-6.2103495597839355
aF23.44881820678711
aF-11.122308731079102
aF-13.365252494812012
aF12.569631576538086
aF-8.391364097595215
aF-93.38681030273438
aF-16.048309326171875
aF-0.8106096982955933
aF43.99583435058594
aF-10.912692070007324
aF-22.928712844848633
aF2.727212905883789
aF-2.3650524616241455
aF-24.072486877441406
aF-20.349802017211914
aF9.707915306091309
aF70.00259399414062
aF-42.04173278808594
aF-23.796676635742188
aF3.0577406883239746
aF39.190181732177734
aF-22.749027252197266
aF10.2172269821167
aF39.71818542480469
aF-50.15160369873047
aF-19.194927215576172
aF-2.644284963607788
aF-5.977888584136963
aF-19.006067276000977
aF-34.86481857299805
aF-28.358074188232422
aF3.4397153854370117
aF-26.926849365234375
aF41.21628952026367
aF21.25257110595703
aF-20.61738395690918
aF-23.465274810791016
aF-31.53467559814453
aF-21.221311569213867
aF-34.0422477722168
aF-32.47322463989258
aF16.487089157104492
aF4.936730861663818
aF-27.34805679321289
aF-0.5320960879325867
aF-13.998738288879395
aF24.882078170776367
aF-4.127901077270508
aF-0.1911325305700302
aF27.381103515625
aF-19.84099769592285
aF-34.810951232910156
aF9.068479537963867
aF35.23350524902344
aF9.200640678405762
aF-32.69713592529297
aF-7.988142967224121
aF-14.15859603881836
aF-1.3382364511489868
aF-47.59376907348633
aF-4.4878435134887695
aF16.887540817260742
aF-3.199927806854248
aF42.007503509521484
aF54.324256896972656
aF30.741016387939453
aF6.114590644836426
aF-21.832136154174805
aF-28.631948471069336
aF-32.36843490600586
aF-14.589755058288574
aF-5.1528639793396
aF-63.10978698730469
aF15.657845497131348
aF-70.44493103027344
aF-83.46023559570312
aF-31.809505462646484
aF-0.26984643936157227
aF-7.245529651641846
aF0.5338879823684692
aF-41.968082427978516
aF1.5993939638137817
aF-29.139650344848633
aF-17.29281234741211
aF-5.96588134765625
aa(lp225
I18
aF0.0
aF0.0
aF0.0
aF0.7894736842105263
aF0.0
aI2
aI2
aI0
aI3
aI6
aI0
aI0
aI0
aI0
ag2
(g6
S'\xbd\x86\xf2z\x0fk\xec?'
p226
tp227
Rp228
ag2
(g6
S'\xe55\x94\xcf\x87}\xe6?'
p229
tp230
Rp231
ag2
(g6
S'\x00\x00\x00x^t\xe9?'
p232
tp233
Rp234
ag2
(g6
S'\xa2\xbc\x86\xd2\x00\x8b\xe9?'
p235
tp236
Rp237
aF10.669337272644043
aF146.5350799560547
aF-78.4304428100586
aF-28.147045135498047
aF-133.4991455078125
aF20.1584415435791
aF-55.308712005615234
aF-69.70812225341797
aF77.8365249633789
aF17.508712768554688
aF-86.29602813720703
aF-8.53579330444336
aF-153.2838592529297
aF-83.09882354736328
aF-14.187585830688477
aF62.03282165527344
aF-25.694255828857422
aF-35.18269729614258
aF33.07419967651367
aF-27.487443923950195
aF-247.0040283203125
aF-38.92802810668945
aF-0.06951165199279785
aF116.44975280761719
aF-26.174806594848633
aF-59.49395751953125
aF2.820418119430542
aF-6.173874378204346
aF-67.18991088867188
aF-53.139041900634766
aF21.106473922729492
aF189.6486358642578
aF-106.17535400390625
aF-61.301673889160156
aF8.768400192260742
aF102.9418716430664
aF-61.20067596435547
aF26.829269409179688
aF108.64383697509766
aF-134.14840698242188
aF-50.591888427734375
aF-6.967294216156006
aF-19.85024642944336
aF-48.33620071411133
aF-90.37865447998047
aF-79.17703247070312
aF10.654974937438965
aF-68.79763793945312
aF110.80950164794922
aF55.527896881103516
aF-54.5509033203125
aF-61.01919937133789
aF-79.3742446899414
aF-58.2596321105957
aF-90.07466888427734
aF-87.76949310302734
aF43.600013732910156
aF10.852890014648438
aF-76.25939178466797
aF-0.15447679162025452
aF-40.38939666748047
aF66.9742202758789
aF-12.03805160522461
aF-1.1225459575653076
aF69.196044921875
aF-52.427085876464844
aF-94.97895050048828
aF26.066171646118164
aF94.60929107666016
aF25.02342414855957
aF-85.50696563720703
aF-19.119068145751953
aF-34.896278381347656
aF-2.769435405731201
aF-130.23779296875
aF-13.406200408935547
aF42.4598503112793
aF-5.549337387084961
aF113.4206771850586
aF145.62701416015625
aF83.22747039794922
aF17.84272003173828
aF-59.085906982421875
aF-79.29999542236328
aF-82.43704223632812
aF-35.18556594848633
aF-13.629258155822754
aF-171.29237365722656
aF49.259925842285156
aF-184.70379638671875
aF-221.98150634765625
aF-85.43396759033203
aF-4.997653007507324
aF-17.532445907592773
aF-0.09259887784719467
aF-109.96131896972656
aF3.81613826751709
aF-72.39588165283203
aF-43.85257339477539
aF-17.007110595703125
aa(lp238
I11
aF0.0
aF0.08333333333333333
aF0.0
aF0.5
aF0.0
aI0
aI1
aI0
aI2
aI3
aI0
aI0
aI0
aI1
ag2
(g6
S'\x00\x00\x00\xb01\xcf\xdf?'
p239
tp240
Rp241
ag2
(g6
S'\x00\x00\x00 H\xbc\xdf?'
p242
tp243
Rp244
ag2
(g6
S'\xab\xaa\xaa\xda!\xe4\xdf?'
p245
tp246
Rp247
ag2
(g6
S'UUU\xa5\xba\xcb\xdf?'
p248
tp249
Rp250
aF2.021747350692749
aF28.890897750854492
aF-15.727191925048828
aF-5.143507480621338
aF-26.73822021484375
aF4.781571388244629
aF-11.385429382324219
aF-13.897256851196289
aF15.224553108215332
aF3.933922052383423
aF-17.201427459716797
aF-1.8560395240783691
aF-30.761932373046875
aF-16.18989372253418
aF-2.2999284267425537
aF12.698775291442871
aF-4.45399284362793
aF-6.91869592666626
aF6.667508602142334
aF-5.862883567810059
aF-48.52901840209961
aF-7.826356410980225
aF0.2573126256465912
aF23.172649383544922
aF-4.913741111755371
aF-11.871744155883789
aF-0.04324399307370186
aF-0.9906421899795532
aF-13.439993858337402
aF-10.022478103637695
aF3.9736878871917725
aF38.234249114990234
aF-20.01445770263672
aF-11.654991149902344
aF1.5154656171798706
aF20.844078063964844
aF-12.353918075561523
aF5.488122940063477
aF21.91968536376953
aF-26.522762298583984
aF-10.4357328414917
aF-1.5434975624084473
aF-3.994174003601074
aF-9.765578269958496
aF-17.875782012939453
aF-16.703805923461914
aF2.452885150909424
aF-13.244534492492676
aF22.535146713256836
aF10.662104606628418
aF-10.768494606018066
aF-12.0567626953125
aF-14.974668502807617
aF-11.980581283569336
aF-17.277202606201172
aF-17.875633239746094
aF9.114094734191895
aF1.9312952756881714
aF-15.876900672912598
aF-0.49107012152671814
aF-8.399140357971191
aF13.485140800476074
aF-2.402259111404419
aF-0.4160311222076416
aF12.810447692871094
aF-10.582374572753906
aF-19.047565460205078
aF5.107848167419434
aF18.733442306518555
aF5.2122039794921875
aF-16.589214324951172
aF-4.003932476043701
aF-6.6593475341796875
aF-0.4407135546207428
aF-26.05107879638672
aF-2.7395811080932617
aF8.587904930114746
aF-0.3178284466266632
aF22.38514518737793
aF28.551244735717773
aF16.4482364654541
aF3.9016432762145996
aF-11.550324440002441
aF-15.635623931884766
aF-15.922584533691406
aF-6.329336166381836
aF-2.720226764678955
aF-34.26539993286133
aF11.17665958404541
aF-36.730857849121094
aF-43.803382873535156
aF-16.912309646606445
aF-1.404549241065979
aF-3.4178783893585205
aF-0.044467777013778687
aF-21.853628158569336
aF0.4251325726509094
aF-13.66471004486084
aF-8.946389198303223
aF-3.360485553741455
aa(lp251
I12
aF0.0
aF0.0
aF0.0
aF0.38461538461538464
aF0.0
aI0
aI1
aI0
aI10
aI5
aI0
aI0
aI0
aI2
ag2
(g6
S'\xec\xc4N,\xef\x1d\xe8?'
p252
tp253
Rp254
ag2
(g6
S'\xd9\x89\x9d\x18\xf5&\xe8?'
p255
tp256
Rp257
ag2
(g6
S'\xd9\x89\x9d\x98-\xac\xe7?'
p258
tp259
Rp260
ag2
(g6
S'\x00\x00\x00@@\xa7\xe7?'
p261
tp262
Rp263
aF0.7413779497146606
aF89.11567687988281
aF-41.081825256347656
aF-21.876176834106445
aF-76.41507720947266
aF-2.4513707160949707
aF-29.192459106445312
aF-34.498146057128906
aF47.971004486083984
aF1.2794831991195679
aF-50.19533157348633
aF-4.349415302276611
aF-81.81666564941406
aF-47.573238372802734
aF-16.64366340637207
aF34.216163635253906
aF-25.98419952392578
aF-23.697534561157227
aF18.018877029418945
aF-9.6210298538208
aF-141.98777770996094
aF-28.415205001831055
aF-1.5535799264907837
aF67.65281677246094
aF-19.328771591186523
aF-37.566444396972656
aF10.316937446594238
aF-8.087503433227539
aF-32.3825569152832
aF-32.14618682861328
aF20.700393676757812
aF97.68644714355469
aF-79.49134826660156
aF-38.424163818359375
aF5.702062129974365
aF51.112667083740234
aF-34.575035095214844
aF14.890277862548828
aF57.17816925048828
aF-75.03950500488281
aF-25.8848819732666
aF-6.406189918518066
aF-7.639307498931885
aF-31.869163513183594
aF-52.06888961791992
aF-31.14346694946289
aF0.16816875338554382
aF-44.896976470947266
aF59.69049072265625
aF38.4022331237793
aF-29.794879913330078
aF-35.880645751953125
aF-57.83120346069336
aF-28.695310592651367
aF-54.06095504760742
aF-43.603519439697266
aF23.883760452270508
aF9.718210220336914
aF-31.916831970214844
aF-0.034920450299978256
aF-17.68048095703125
aF35.075294494628906
aF-4.791012287139893
aF3.414435863494873
aF50.771480560302734
aF-27.669273376464844
aF-47.709136962890625
aF15.07321548461914
aF49.475955963134766
aF12.787915229797363
aF-58.02401351928711
aF-16.76456069946289
aF-18.461957931518555
aF-8.77248764038086
aF-67.59618377685547
aF-0.8966397047042847
aF25.26361083984375
aF-10.629446983337402
aF67.30194854736328
aF79.00968933105469
aF48.619911193847656
aF3.539440393447876
aF-32.726627349853516
aF-42.253936767578125
aF-56.18027114868164
aF-30.405452728271484
aF-11.708799362182617
aF-92.55059051513672
aF10.652052879333496
aF-105.79581451416016
aF-130.18002319335938
aF-48.63798904418945
aF-1.194159984588623
aF-20.227975845336914
aF4.818576335906982
aF-61.57496643066406
aF3.0677132606506348
aF-57.37771224975586
aF-22.470298767089844
aF-8.600112915039062
aa(lp264
I10
aF0.0
aF0.0
aF0.0
aF0.45454545454545453
aF0.0
aI0
aI1
aI0
aI6
aI2
aI1
aI0
aI0
aI0
ag2
(g6
S'\x00\x00\x00\xe0\xf5H\xe4?'
p265
tp266
Rp267
ag2
(g6
S']t\xd1\xc5\xf5e\xe3?'
p268
tp269
Rp270
ag2
(g6
S't\xd1E7\x17\x9d\xe3?'
p271
tp272
Rp273
ag2
(g6
S'F\x17]\x94\x03\xa1\xe3?'
p274
tp275
Rp276
aF-1.2449064254760742
aF60.0178108215332
aF-27.6250057220459
aF-15.008308410644531
aF-49.565765380859375
aF-5.061798095703125
aF-18.980422973632812
aF-21.473405838012695
aF32.65577697753906
aF-0.18903040885925293
aF-32.751277923583984
aF-3.0849428176879883
aF-52.94068908691406
aF-30.311622619628906
aF-11.67087173461914
aF22.316930770874023
aF-18.51023292541504
aF-17.04663848876953
aF11.964704513549805
aF-6.661072254180908
aF-93.03650665283203
aF-19.867549896240234
aF-1.33369779586792
aF45.03681564331055
aF-13.815629005432129
aF-25.540220260620117
aF7.421008586883545
aF-6.192826271057129
aF-21.146284103393555
aF-20.64405632019043
aF14.221441268920898
aF63.1474609375
aF-56.054439544677734
aF-25.041467666625977
aF4.118451118469238
aF31.298357009887695
aF-23.42522430419922
aF9.665038108825684
aF37.580909729003906
aF-48.494651794433594
aF-16.39386558532715
aF-5.35968017578125
aF-5.4000444412231445
aF-22.556737899780273
aF-34.12258529663086
aF-19.045284271240234
aF-1.4760887622833252
aF-30.63196563720703
aF39.50419616699219
aF27.638160705566406
aF-19.267980575561523
aF-23.959033966064453
aF-40.074676513671875
aF-18.527624130249023
aF-36.270286560058594
aF-28.339691162109375
aF15.201353073120117
aF6.310606956481934
aF-19.730104446411133
aF-0.32021021842956543
aF-12.05691909790039
aF22.388410568237305
aF-3.1232194900512695
aF2.9420745372772217
aF35.11149978637695
aF-17.418115615844727
aF-30.886486053466797
aF11.11731243133545
aF31.93071937561035
aF8.231060028076172
aF-40.20329284667969
aF-12.769914627075195
aF-10.323576927185059
aF-7.1907219886779785
aF-43.492820739746094
aF1.311170220375061
aF17.566686630249023
aF-8.189868927001953
aF45.09288024902344
aF51.404502868652344
aF32.70759963989258
aF1.4177242517471313
aF-20.677724838256836
aF-28.364028930664062
aF-38.357357025146484
aF-21.512849807739258
aF-8.980125427246094
aF-61.175140380859375
aF4.961834907531738
aF-70.01396179199219
aF-86.95565032958984
aF-32.15964889526367
aF-2.258514404296875
aF-16.127864837646484
aF3.975893497467041
aF-39.86327362060547
aF1.785098910331726
aF-40.57325744628906
aF-13.687553405761719
aF-6.05783748626709
aa(lp277
I11
aF0.0
aF0.0
aF0.0
aF0.75
aF0.0
aI0
aI0
aI0
aI3
aI1
aI1
aI1
aI1
aI0
ag2
(g6
S'\x00\x00\x00\x88\np\xea?'
p278
tp279
Rp280
ag2
(g6
S'\xab\xaa\xaa\xca\x99n\xea?'
p281
tp282
Rp283
ag2
(g6
S'\x00\x00\x00\x90\x81s\xea?'
p284
tp285
Rp286
ag2
(g6
S'\xab\xaa\xaa"\xf4X\xea?'
p287
tp288
Rp289
aF3.5131969451904297
aF70.73871612548828
aF-37.08396911621094
aF-14.22557544708252
aF-63.85054016113281
aF6.844655990600586
aF-26.278778076171875
aF-32.02541732788086
aF38.222801208496094
aF6.8958353996276855
aF-41.08673095703125
aF-4.416348934173584
aF-72.3872299194336
aF-39.126678466796875
aF-8.198454856872559
aF29.83444595336914
aF-13.964099884033203
aF-17.615020751953125
aF15.7367525100708
aF-12.229257583618164
aF-117.31659698486328
aF-20.080812454223633
aF-0.39787399768829346
aF55.70016098022461
aF-13.493082046508789
aF-29.260255813598633
aF2.590701103210449
aF-3.7262625694274902
aF-30.91777992248535
aF-25.08460235595703
aF11.574997901916504
aF88.49014282226562
aF-54.20068359375
aF-28.989227294921875
aF4.011075496673584
aF47.3440055847168
aF-29.525222778320312
aF13.024503707885742
aF50.9222412109375
aF-63.18997573852539
aF-23.76476287841797
aF-4.1909332275390625
aF-8.890958786010742
aF-24.425113677978516
aF-43.17506408691406
aF-35.55111312866211
aF3.918405055999756
aF-33.745513916015625
aF52.771114349365234
aF28.255977630615234
aF-25.549888610839844
aF-29.317066192626953
aF-40.000118255615234
aF-27.066675186157227
aF-43.008514404296875
aF-40.87636184692383
aF20.874570846557617
aF5.373134613037109
aF-34.442630767822266
aF-0.8693374395370483
aF-18.78370475769043
aF31.56088638305664
aF-5.1890668869018555
aF0.19394005835056305
aF34.725364685058594
aF-24.410385131835938
aF-44.06865692138672
aF12.69014835357666
aF44.160160064697266
aF11.531207084655762
aF-42.16994094848633
aF-10.759678840637207
aF-15.608261108398438
aF-2.8905229568481445
aF-60.44758224487305
aF-4.749009132385254
aF20.913530349731445
aF-3.6852924823760986
aF54.41731643676758
aF67.96466827392578
aF39.64931869506836
aF7.441990852355957
aF-27.127071380615234
aF-37.12250518798828
aF-41.090450286865234
aF-18.31780433654785
aF-7.612541198730469
aF-80.82518768310547
aF20.7133731842041
aF-88.13748931884766
aF-106.17486572265625
aF-40.454044342041016
aF-2.7554447650909424
aF-10.875606536865234
aF1.132129192352295
aF-52.03682327270508
aF1.7580914497375488
aF-37.637451171875
aF-20.51580810546875
aF-7.867249488830566
aa(lp290
I13
aF0.0
aF0.0
aF0.0
aF0.5714285714285714
aF0.0
aI0
aI0
aI0
aI3
aI4
aI0
aI0
aI1
aI0
ag2
(g6
S'n\xdb\xb6\xc9\xb6`\xe6?'
p291
tp292
Rp293
ag2
(g6
S'\xb7m\xdb\x96\xb2\x99\xea?'
p294
tp295
Rp296
ag2
(g6
S'%I\x92\x84]K\xe9?'
p297
tp298
Rp299
ag2
(g6
S'n\xdb\xb6\t]h\xe8?'
p300
tp301
Rp302
aF2.1776459217071533
aF81.11744689941406
aF-41.316650390625
aF-17.381206512451172
aF-71.04191589355469
aF2.946615695953369
aF-28.847230911254883
aF-34.63960266113281
aF43.6511116027832
aF5.569701194763184
aF-46.26824188232422
aF-4.655941009521484
aF-78.19087982177734
aF-43.228031158447266
aF-10.986122131347656
aF32.372718811035156
aF-18.98335075378418
aF-21.583606719970703
aF17.468725204467773
aF-12.192967414855957
aF-131.24099731445312
aF-24.63608169555664
aF-0.9817893505096436
aF62.91205978393555
aF-17.07164764404297
aF-33.585899353027344
aF5.4742302894592285
aF-5.406730651855469
aF-33.07585906982422
aF-28.306713104248047
aF15.341057777404785
aF96.05616760253906
aF-66.72464752197266
aF-33.9712028503418
aF4.867679595947266
aF50.28077697753906
aF-33.06402587890625
aF13.95155143737793
aF55.83943557739258
aF-69.46623229980469
aF-25.372926712036133
aF-5.4649248123168945
aF-9.435142517089844
aF-29.407987594604492
aF-48.48902893066406
aF-35.775352478027344
aF1.7051637172698975
aF-39.81779098510742
aF57.74660110473633
aF34.118896484375
aF-28.266660690307617
aF-33.62510681152344
aF-48.388450622558594
aF-29.29170799255371
aF-49.14227294921875
aF-44.185272216796875
aF22.606721878051758
aF7.075742721557617
aF-35.20521545410156
aF-0.6302998065948486
aF-19.907634735107422
aF33.8685302734375
aF-5.679920196533203
aF1.5292878150939941
aF42.28575134277344
aF-26.303518295288086
aF-47.57242965698242
aF14.631021499633789
aF48.172569274902344
aF12.604082107543945
aF-50.56553649902344
aF-14.042840003967285
aF-16.85394859313965
aF-4.983644962310791
aF-65.46331024169922
aF-2.772207260131836
aF24.698606491088867
aF-6.705605983734131
aF61.347713470458984
aF75.75274658203125
aF45.12809371948242
aF6.489309787750244
aF-29.9971981048584
aF-41.496734619140625
aF-48.44768524169922
aF-23.88170051574707
aF-9.923855781555176
aF-89.03717041015625
aF17.858047485351562
aF-99.12171173095703
aF-120.26800537109375
aF-45.218902587890625
aF-2.5403764247894287
aF-15.03658390045166
aF2.5397212505340576
aF-57.52437210083008
aF1.7211835384368896
aF-46.92612838745117
aF-21.988201141357422
aF-8.963438034057617
aa(lp303
I10
aF0.0
aF0.0
aF0.0
aF0.6363636363636364
aF0.09090909090909091
aI0
aI0
aI0
aI3
aI0
aI1
aI2
aI0
aI0
ag2
(g6
S'/\xba\xe8\xa2M\xb6\xe9?'
p304
tp305
Rp306
ag2
(g6
S'F\x17]\x14w\xc0\xe9?'
p307
tp308
Rp309
ag2
(g6
S'\xa3\x8b.:,\xf3\xe9?'
p310
tp311
Rp312
ag2
(g6
S'\xe9\xa2\x8bn\x92\xb4\xe9?'
p313
tp314
Rp315
aF5.523098945617676
aF100.4021987915039
aF-52.254180908203125
aF-20.513938903808594
aF-89.4099349975586
aF9.17452335357666
aF-36.51912307739258
aF-45.21556091308594
aF53.56584167480469
aF9.422450065612793
aF-58.036720275878906
aF-5.658205986022949
aF-102.13070678710938
aF-55.85690689086914
aF-11.77342414855957
aF41.49265670776367
aF-20.36325454711914
aF-25.083520889282227
aF22.104124069213867
aF-17.488618850708008
aF-166.70556640625
aF-27.447731018066406
aF-0.47099652886390686
aF78.96595764160156
aF-18.706897735595703
aF-41.36163330078125
aF3.7804501056671143
aF-5.422973155975342
aF-44.05519104003906
aF-36.306304931640625
aF16.283540725708008
aF125.37220001220703
aF-76.89166259765625
aF-41.82282638549805
aF6.398867130279541
aF66.74413299560547
aF-41.387996673583984
aF18.03606414794922
aF72.35554504394531
aF-90.03241729736328
aF-33.079891204833984
aF-5.620277404785156
aF-12.616731643676758
aF-33.55876922607422
aF-60.709285736083984
aF-49.870731353759766
aF5.4241557121276855
aF-47.971099853515625
aF73.98890686035156
aF39.82192611694336
aF-36.51474380493164
aF-41.230594635009766
aF-56.908565521240234
aF-38.08320999145508
aF-61.52832794189453
aF-57.34894943237305
aF28.692264556884766
aF7.922962665557861
aF-48.09602355957031
aF-0.03362483158707619
aF-26.163209915161133
aF44.0848503112793
aF-7.688713550567627
aF0.3242835998535156
aF49.60780715942383
aF-34.52548599243164
aF-62.487388610839844
aF18.174108505249023
aF62.62679672241211
aF16.499895095825195
aF-60.15387725830078
aF-14.598506927490234
aF-22.644515991210938
aF-3.930633306503296
aF-86.10446166992188
aF-7.223685264587402
aF28.769861221313477
aF-5.923035621643066
aF77.46829223632812
aF96.73561096191406
aF56.90491485595703
aF10.101015090942383
aF-39.32654571533203
aF-52.772972106933594
aF-58.07628631591797
aF-26.485149383544922
aF-10.441706657409668
aF-114.64484405517578
aF28.595983505249023
aF-124.44295501708984
aF-151.01686096191406
aF-57.770751953125
aF-3.7275357246398926
aF-15.218280792236328
aF1.2874213457107544
aF-73.66930389404297
aF2.864366292953491
aF-53.08320236206055
aF-28.483917236328125
aF-11.360981941223145
aa(lp316
I10
aF0.0
aF0.0
aF0.09090909090909091
aF0.7272727272727273
aF0.0
aI0
aI1
aI0
aI2
aI4
aI0
aI0
aI0
aI0
ag2
(g6
S'/\xba\xe8\x82R\xa9\xe6?'
p317
tp318
Rp319
ag2
(g6
S'\xe9\xa2\x8bN\xa50\xe7?'
p320
tp321
Rp322
ag2
(g6
S']t\xd1\xe5q\r\xe7?'
p323
tp324
Rp325
ag2
(g6
S'\xd1E\x17\x1d\xf6\x1a\xe7?'
p326
tp327
Rp328
aF4.576050758361816
aF50.94743728637695
aF-28.147245407104492
aF-9.162919044494629
aF-47.4903450012207
aF9.225507736206055
aF-20.294477462768555
aF-25.54338264465332
aF27.02668571472168
aF7.409615516662598
aF-30.692134857177734
aF-2.935666084289551
aF-54.607215881347656
aF-29.37812042236328
aF-3.9145429134368896
aF21.98957061767578
aF-7.78531551361084
aF-12.011676788330078
aF11.7903413772583
aF-9.705519676208496
aF-86.87874603271484
aF-13.439313888549805
aF-0.3383410573005676
aF41.03559494018555
aF-9.155244827270508
aF-20.530595779418945
aF0.400627464056015
aF-1.3103361129760742
aF-24.132905960083008
aF-18.56110382080078
aF6.694558620452881
aF67.7803955078125
aF-35.25471115112305
aF-21.58184814453125
aF2.708303928375244
aF37.77838134765625
aF-21.488540649414062
aF9.514796257019043
aF38.584205627441406
aF-47.19317626953125
aF-18.25050926208496
aF-2.0524983406066895
aF-6.8683905601501465
aF-16.8448429107666
aF-32.21056365966797
aF-29.59785270690918
aF4.327067852020264
aF-23.67474937438965
aF39.35406494140625
aF18.565696716308594
aF-19.429737091064453
aF-21.639892578125
aF-26.524219512939453
aF-21.001583099365234
aF-31.372570037841797
aF-31.83732032775879
aF15.509154319763184
aF3.7241199016571045
aF-28.09229850769043
aF-0.15322928130626678
aF-14.53182601928711
aF23.805389404296875
aF-4.420964241027832
aF-0.8948426246643066
aF23.11802864074707
aF-18.89607048034668
aF-34.146575927734375
aF8.711896896362305
aF33.90542984008789
aF8.988235473632812
aF-28.931943893432617
aF-6.0807952880859375
aF-13.104521751403809
aF0.18263104557991028
aF-46.22117614746094
aF-5.646500587463379
aF15.481405258178711
aF-1.2950111627578735
aF39.03782653808594
aF51.91781234741211
aF28.890716552734375
aF7.1752610206604
aF-20.776676177978516
aF-27.875560760498047
aF-27.996253967285156
aF-11.356217384338379
aF-4.1928253173828125
aF-60.425411224365234
aF18.87917137145996
aF-65.51072692871094
aF-77.52574157714844
aF-29.7882080078125
aF-1.1048438549041748
aF-4.472626686096191
aF-0.5976563692092896
aF-39.061283111572266
aF1.1813467741012573
aF-23.66704750061035
aF-16.307079315185547
aF-6.03019905090332
aa(lp329
I9
aF0.0
aF0.0
aF0.0
aF0.5
aF0.0
aI0
aI1
aI1
aI3
aI0
aI0
aI0
aI0
aI1
ag2
(g6
S'\x9a\x99\x99)\xe9\xc5\xe2?'
p330
tp331
Rp332
ag2
(g6
S'333\x83\x14\x8b\xe2?'
p333
tp334
Rp335
ag2
(g6
S'\x00\x00\x00``}\xe2?'
p336
tp337
Rp338
ag2
(g6
S'333\xa3C\x07\xe3?'
p339
tp340
Rp341
aF0.2864423990249634
aF42.78075408935547
aF-19.405580520629883
aF-10.820873260498047
aF-37.11001205444336
aF-1.2869579792022705
aF-14.191571235656738
aF-16.370952606201172
aF23.357152938842773
aF0.21713215112686157
aF-24.271730422973633
aF-2.1221530437469482
aF-39.8530158996582
aF-23.175466537475586
aF-8.206178665161133
aF16.85068130493164
aF-12.753181457519531
aF-11.064453125
aF8.799676895141602
aF-4.354543685913086
aF-68.50391387939453
aF-13.671701431274414
aF-0.7702028155326843
aF32.41652297973633
aF-9.016688346862793
aF-18.383119583129883
aF5.062096118927002
aF-4.0205583572387695
aF-15.552979469299316
aF-15.528882026672363
aF10.072578430175781
aF46.85747528076172
aF-38.3565559387207
aF-18.14606285095215
aF2.9159908294677734
aF24.787870407104492
aF-16.58587074279785
aF7.411615371704102
aF27.258878707885742
aF-36.26792907714844
aF-12.62497615814209
aF-3.114466667175293
aF-3.4367146492004395
aF-15.088747024536133
aF-25.0931453704834
aF-14.774371147155762
aF0.40749067068099976
aF-21.68572998046875
aF28.79332733154297
aF18.453876495361328
aF-14.354270935058594
aF-16.992633819580078
aF-28.20662498474121
aF-13.659045219421387
aF-25.934751510620117
aF-20.894908905029297
aF11.54305362701416
aF4.780066967010498
aF-15.150320053100586
aF-0.2764537036418915
aF-8.262211799621582
aF17.012277603149414
aF-2.173368453979492
aF1.5379713773727417
aF24.445220947265625
aF-13.469220161437988
aF-22.77570343017578
aF7.125454902648926
aF23.791038513183594
aF6.052105903625488
aF-27.72602081298828
aF-8.210480690002441
aF-8.919085502624512
aF-4.400251388549805
aF-32.506717681884766
aF-0.30550068616867065
aF11.854653358459473
aF-5.16525411605835
aF32.67669677734375
aF37.40365982055664
aF23.244245529174805
aF1.652419090270996
aF-15.744698524475098
aF-19.944927215576172
aF-27.261672973632812
aF-14.71558952331543
aF-5.41644287109375
aF-44.46885299682617
aF4.925683498382568
aF-50.945831298828125
aF-62.51221466064453
aF-23.531997680664062
aF-0.595058262348175
aF-10.178617477416992
aF2.518845796585083
aF-29.939529418945312
aF1.7522010803222656
aF-27.83527183532715
aF-10.918169975280762
aF-3.8919458389282227
aa(lp342
I15
aF0.0
aF0.0
aF0.0
aF0.875
aF0.0
aI0
aI0
aI0
aI1
aI3
aI0
aI0
aI0
aI1
ag2
(g6
S'\x00\x00\x00\x9c\xe8\xeb\xe7?'
p343
tp344
Rp345
ag2
(g6
S"\x00\x00\x00\xd4'\xdd\xe7?"
p346
tp347
Rp348
ag2
(g6
S'\x00\x00\x00\xb6\x90\xeb\xe7?'
p349
tp350
Rp351
ag2
(g6
S'\x00\x00\x00T\xf3\xcc\xe7?'
p352
tp353
Rp354
aF3.4752585887908936
aF64.77721405029297
aF-34.38759231567383
aF-12.509642601013184
aF-57.8919677734375
aF6.95086669921875
aF-24.27921485900879
aF-29.68803596496582
aF34.058353424072266
aF7.146579742431641
aF-37.51141357421875
aF-3.68646240234375
aF-65.92364501953125
aF-35.56542205810547
aF-6.5864434242248535
aF26.87370491027832
aF-11.963661193847656
aF-16.43444061279297
aF14.535216331481934
aF-11.964393615722656
aF-106.9776840209961
aF-17.940532684326172
aF-0.15780974924564362
aF51.00822067260742
aF-12.049612045288086
aF-26.259628295898438
aF1.6130634546279907
aF-2.914248466491699
aF-28.859020233154297
aF-22.688838958740234
aF9.850210189819336
aF81.72549438476562
aF-48.05695724487305
aF-26.907800674438477
aF3.6840102672576904
aF43.58095169067383
aF-26.996505737304688
aF11.552777290344238
aF47.38898468017578
aF-57.81098937988281
aF-21.799474716186523
aF-3.6233327388763428
aF-8.596870422363281
aF-21.96685791015625
aF-39.21477508544922
aF-33.69294357299805
aF3.5867509841918945
aF-30.54636573791504
aF48.41515350341797
aF25.251205444335938
aF-23.522544860839844
aF-26.826826095581055
aF-35.42766571044922
aF-25.27193260192871
aF-39.0327033996582
aF-37.94863510131836
aF18.861845016479492
aF4.780897617340088
aF-32.147178649902344
aF-0.06883865594863892
aF-17.814640045166016
aF28.44441795349121
aF-5.2194342613220215
aF0.01783384568989277
aF30.852933883666992
aF-22.40680503845215
aF-40.89603805541992
aF11.762697219848633
aF40.74937057495117
aF11.011940956115723
aF-38.45156478881836
aF-9.367667198181152
aF-14.433670997619629
aF-2.075197219848633
aF-56.05231857299805
aF-4.854421138763428
aF19.260574340820312
aF-2.744313955307007
aF49.68570327758789
aF62.80829620361328
aF36.78325653076172
aF7.145150184631348
aF-25.26375389099121
aF-34.51933288574219
aF-36.540401458740234
aF-16.232412338256836
aF-6.659145832061768
aF-74.48638916015625
aF20.3338680267334
aF-80.50835418701172
aF-97.31092834472656
aF-37.17375183105469
aF-2.6468276977539062
aF-9.042778968811035
aF0.33961379528045654
aF-47.45176696777344
aF1.4095607995986938
aF-32.99609375
aF-18.577878952026367
aF-7.455996990203857
aa(lp355
I0
aF0.0
aF0.0
aF0.0
aF0.0
aF0.0
aI0
aI0
aI0
aI0
aI0
aI0
aI0
aI0
aI0
aF0.0
aF0.0
aF0.0
aF0.0
aF0.0
aF0.0
aF0.0
aF0.0
aF0.0
aF0.0
aF0.0
aF0.0
aF0.0
aF0.0
aF0.0
aF0.0
aF0.0
aF0.0
aF0.0
aF0.0
aF0.0
aF0.0
aF0.0
aF0.0
aF0.0
aF0.0
aF0.0
aF0.0
aF0.0
aF0.0
aF0.0
aF0.0
aF0.0
aF0.0
aF0.0
aF0.0
aF0.0
aF0.0
aF0.0
aF0.0
aF0.0
aF0.0
aF0.0
aF0.0
aF0.0
aF0.0
aF0.0
aF0.0
aF0.0
aF0.0
aF0.0
aF0.0
aF0.0
aF0.0
aF0.0
aF0.0
aF0.0
aF0.0
aF0.0
aF0.0
aF0.0
aF0.0
aF0.0
aF0.0
aF0.0
aF0.0
aF0.0
aF0.0
aF0.0
aF0.0
aF0.0
aF0.0
aF0.0
aF0.0
aF0.0
aF0.0
aF0.0
aF0.0
aF0.0
aF0.0
aF0.0
aF0.0
aF0.0
aF0.0
aF0.0
aF0.0
aF0.0
aF0.0
aF0.0
aF0.0
aF0.0
aF0.0
aF0.0
aF0.0
aF0.0
aF0.0
aF0.0
aF0.0
aF0.0
aF0.0
aF0.0
aF0.0
aF0.0
aF0.0
aa(lp356
I11
aF0.0
aF0.0
aF0.0
aF0.75
aF0.0
aI0
aI0
aI0
aI1
aI2
aI3
aI0
aI0
aI1
ag2
(g6
S'\x00\x00\x00\x98\x97Q\xe5?'
p357
tp358
Rp359
ag2
(g6
S'UUU\x95\x0f=\xe5?'
p360
tp361
Rp362
ag2
(g6
S'\xab\xaa\xaa:\xb5C\xe5?'
p363
tp364
Rp365
ag2
(g6
S'\x00\x00\x00\xb0\xcd\x12\xe5?'
p366
tp367
Rp368
aF4.7627081871032715
aF65.66072082519531
aF-35.72550582885742
aF-12.00291633605957
aF-59.36234664916992
aF9.698416709899902
aF-25.08902931213379
aF-31.4198055267334
aF34.12860107421875
aF8.682265281677246
aF-38.4217529296875
aF-3.7899279594421387
aF-68.83016204833984
aF-37.0185432434082
aF-5.6497416496276855
aF27.716413497924805
aF-10.490556716918945
aF-15.981179237365723
aF15.015063285827637
aF-13.299581527709961
aF-110.27713775634766
aF-16.950252532958984
aF0.10302954167127609
aF52.23291015625
aF-11.247452735900879
aF-26.42343521118164
aF0.25238215923309326
aF-2.315570592880249
aF-30.753883361816406
aF-23.500076293945312
aF8.44161605834961
aF85.9286117553711
aF-46.167396545410156
aF-27.344661712646484
aF3.8646867275238037
aF46.337886810302734
aF-27.71550941467285
aF11.975287437438965
aF49.65815353393555
aF-60.27782440185547
aF-22.840993881225586
aF-3.136117935180664
aF-9.542985916137695
aF-21.34117889404297
aF-40.227413177490234
aF-36.70970916748047
aF4.991021156311035
aF-30.325775146484375
aF50.03609848022461
aF24.609067916870117
aF-24.57098960876465
aF-27.089475631713867
aF-34.35258102416992
aF-26.6046142578125
aF-40.06843948364258
aF-39.930274963378906
aF19.60302734375
aF4.52032995223999
aF-35.1443977355957
aF0.36853209137916565
aF-18.9616756439209
aF29.785736083984375
aF-5.693706035614014
aF-0.7141105532646179
aF30.090696334838867
aF-23.635623931884766
aF-43.35143280029297
aF11.960291862487793
aF42.73241424560547
aF11.876035690307617
aF-38.1646842956543
aF-8.22287654876709
aF-15.37686538696289
aF-0.9591320157051086
aF-59.23662567138672
aF-6.565598964691162
aF19.06941032409668
aF-1.643513560295105
aF50.922630310058594
aF65.52799224853516
aF37.77313995361328
aF8.414346694946289
aF-26.612300872802734
aF-35.94852828979492
aF-35.87921905517578
aF-14.884779930114746
aF-5.945584774017334
aF-77.70257568359375
aF23.90894889831543
aF-82.72596740722656
aF-99.63448333740234
aF-38.36553192138672
aF-3.013451099395752
aF-7.321272373199463
aF-0.5716196894645691
aF-49.02567672729492
aF1.6019524335861206
aF-31.077550888061523
aF-19.467119216918945
aF-7.825282096862793
aa(lp369
I0
aF0.0
aF0.0
aF0.0
aF0.0
aF0.0
aI0
aI0
aI0
aI0
aI0
aI0
aI0
aI0
aI0
aF0.0
aF0.0
aF0.0
aF0.0
aF0.0
aF0.0
aF0.0
aF0.0
aF0.0
aF0.0
aF0.0
aF0.0
aF0.0
aF0.0
aF0.0
aF0.0
aF0.0
aF0.0
aF0.0
aF0.0
aF0.0
aF0.0
aF0.0
aF0.0
aF0.0
aF0.0
aF0.0
aF0.0
aF0.0
aF0.0
aF0.0
aF0.0
aF0.0
aF0.0
aF0.0
aF0.0
aF0.0
aF0.0
aF0.0
aF0.0
aF0.0
aF0.0
aF0.0
aF0.0
aF0.0
aF0.0
aF0.0
aF0.0
aF0.0
aF0.0
aF0.0
aF0.0
aF0.0
aF0.0
aF0.0
aF0.0
aF0.0
aF0.0
aF0.0
aF0.0
aF0.0
aF0.0
aF0.0
aF0.0
aF0.0
aF0.0
aF0.0
aF0.0
aF0.0
aF0.0
aF0.0
aF0.0
aF0.0
aF0.0
aF0.0
aF0.0
aF0.0
aF0.0
aF0.0
aF0.0
aF0.0
aF0.0
aF0.0
aF0.0
aF0.0
aF0.0
aF0.0
aF0.0
aF0.0
aF0.0
aF0.0
aF0.0
aF0.0
aF0.0
aF0.0
aF0.0
aF0.0
aF0.0
aF0.0
aF0.0
aF0.0
aF0.0
aF0.0
aF0.0
aa(lp370
I12
aF0.0
aF0.15384615384615385
aF0.0
aF0.46153846153846156
aF0.15384615384615385
aI0
aI3
aI0
aI3
aI5
aI1
aI1
aI0
aI0
ag2
(g6
S'O\xec\xc4\x0e\x9b\xc7\xea?'
p371
tp372
Rp373
ag2
(g6
S'\x14;\xb1s\x06\xce\xea?'
p374
tp375
Rp376
ag2
(g6
S'\xd9\x89\x9d\x18|\xe7\xea?'
p377
tp378
Rp379
ag2
(g6
S'\xd9\x89\x9d8\x80\xb7\xea?'
p380
tp381
Rp382
aF5.029313087463379
aF86.05010223388672
aF-44.41242218017578
aF-17.101560592651367
aF-77.75045776367188
aF9.680017471313477
aF-32.1573600769043
aF-39.12735366821289
aF45.46711730957031
aF8.709066390991211
aF-50.680625915527344
aF-4.961407661437988
aF-87.28591918945312
aF-48.19391632080078
aF-9.766938209533691
aF35.752628326416016
aF-17.291786193847656
aF-20.84173011779785
aF19.148895263671875
aF-14.206893920898438
aF-142.16717529296875
aF-24.316261291503906
aF-0.5116587281227112
aF67.75728607177734
aF-16.098182678222656
aF-35.3682746887207
aF3.419715642929077
aF-4.008790016174316
aF-37.36881637573242
aF-30.522180557250977
aF14.117487907409668
aF107.20986938476562
aF-64.99189758300781
aF-36.208736419677734
aF4.805758953094482
aF58.91872787475586
aF-35.1566276550293
aF15.541561126708984
aF61.58640670776367
aF-76.77345275878906
aF-28.999744415283203
aF-4.5250139236450195
aF-10.080851554870605
aF-28.94537353515625
aF-52.284889221191406
aF-43.62065505981445
aF5.0816779136657715
aF-40.68583679199219
aF63.35401153564453
aF32.786651611328125
aF-31.360849380493164
aF-35.272090911865234
aF-48.14490509033203
aF-32.7369384765625
aF-52.09006881713867
aF-49.51700210571289
aF25.487266540527344
aF7.782613277435303
aF-41.72493362426758
aF-0.29286637902259827
aF-22.261363983154297
aF38.00636291503906
aF-6.448215961456299
aF0.10051771253347397
aF41.94831848144531
aF-30.374710083007812
aF-53.18008804321289
aF14.496312141418457
aF53.309043884277344
aF14.884625434875488
aF-51.29031753540039
aF-12.7876615524292
aF-20.15988540649414
aF-2.9933247566223145
aF-73.6559829711914
aF-6.621702194213867
aF25.326908111572266
aF-4.503462791442871
aF65.676025390625
aF82.92318725585938
aF48.282100677490234
aF9.294382095336914
aF-33.76842498779297
aF-44.459293365478516
aF-49.40159606933594
aF-22.37620735168457
aF-8.799148559570312
aF-97.47667694091797
aF25.402019500732422
aF-107.20841979980469
aF-128.5423126220703
aF-48.946224212646484
aF-2.276625394821167
aF-12.213685989379883
aF0.8689373135566711
aF-63.36485290527344
aF2.236949920654297
aF-44.85235595703125
aF-25.284751892089844
aF-9.539849281311035
aa(lp383
I12
aF0.0
aF0.0
aF0.0
aF0.8461538461538461
aF0.0
aI0
aI1
aI0
aI2
aI4
aI1
aI0
aI0
aI2
ag2
(g6
S'\xd9\x89\x9d\xd8@\xe4\xea?'
p384
tp385
Rp386
ag2
(g6
S'\xec\xc4N\xcc\xfc\xe8\xea?'
p387
tp388
Rp389
ag2
(g6
S'\x9e\xd8\x89\x9d\x8a\xe8\xea?'
p390
tp391
Rp392
ag2
(g6
S'\x9e\xd8\x89\xbd\x0b\xdc\xea?'
p393
tp394
Rp395
aF6.576562404632568
aF81.2454605102539
aF-43.940704345703125
aF-15.210643768310547
aF-74.19532012939453
aF12.093594551086426
aF-30.977270126342773
aF-39.61383056640625
aF42.79075241088867
aF10.505993843078613
aF-48.16001510620117
aF-4.412660121917725
aF-85.10011291503906
aF-46.21745681762695
aF-7.2631025314331055
aF34.0412712097168
aF-13.664475440979004
aF-19.75045394897461
aF18.283702850341797
aF-15.345572471618652
aF-137.19029235839844
aF-21.235557556152344
aF-0.4700893759727478
aF64.69633483886719
aF-14.818624496459961
aF-32.49339294433594
aF1.5175507068634033
aF-2.839606523513794
aF-37.41234588623047
aF-29.69481658935547
aF11.406512260437012
aF105.82251739501953
aF-57.94693374633789
aF-34.4620246887207
aF4.749650478363037
aF57.789276123046875
aF-33.789615631103516
aF14.658458709716797
aF60.64644241333008
aF-74.27055358886719
aF-28.211191177368164
aF-3.4673585891723633
aF-10.845504760742188
aF-26.80634117126465
aF-50.37284851074219
aF-44.61717987060547
aF5.844564437866211
aF-38.14884567260742
aF61.50704574584961
aF30.334142684936523
aF-30.4823055267334
aF-34.36428451538086
aF-43.28996658325195
aF-32.58574676513672
aF-50.13275146484375
aF-48.9004020690918
aF23.89296531677246
aF6.052663326263428
aF-42.81467056274414
aF0.5458873510360718
aF-22.576614379882812
aF36.83003616333008
aF-6.8093390464782715
aF-0.8227286338806152
aF37.9409294128418
aF-29.1661319732666
aF-53.14512634277344
aF14.3438138961792
aF52.97321701049805
aF14.040409088134766
aF-47.16716766357422
aF-10.06621265411377
aF-20.112613677978516
aF-0.7257987260818481
aF-72.59778594970703
aF-8.098348617553711
aF24.048526763916016
aF-3.024523973464966
aF62.2414436340332
aF81.71060943603516
aF46.37028121948242
aF10.148784637451172
aF-32.80510330200195
aF-44.20014953613281
aF-45.07126998901367
aF-19.31861114501953
aF-7.249105453491211
aF-95.08849334716797
aF27.472393035888672
aF-102.80451202392578
aF-123.1515884399414
aF-47.324649810791016
aF-2.1232504844665527
aF-8.565715789794922
aF-0.6525180339813232
aF-60.997074127197266
aF2.1337883472442627
aF-39.199012756347656
aF-24.714073181152344
aF-9.573091506958008
aa(lp396
I10
aF0.0
aF0.0
aF0.09090909090909091
aF0.7272727272727273
aF0.0
aI0
aI1
aI1
aI3
aI4
aI0
aI0
aI0
aI0
ag2
(g6
S'\xa3\x8b.Z\x16\xf4\xe6?'
p397
tp398
Rp399
ag2
(g6
S'\x00\x00\x00\xa0n\x18\xe7?'
p400
tp401
Rp402
ag2
(g6
S'\xd1E\x17\xfd\xbd:\xe7?'
p403
tp404
Rp405
ag2
(g6
S'\xa3\x8b.\xda9#\xe7?'
p406
tp407
Rp408
aF3.465512275695801
aF58.858333587646484
aF-30.678909301757812
aF-11.769290924072266
aF-52.81987380981445
aF6.243577480316162
aF-21.717426300048828
aF-26.889907836914062
aF30.883264541625977
aF6.0026445388793945
aF-34.426090240478516
aF-3.170363426208496
aF-59.613868713378906
aF-32.79286193847656
aF-6.531734943389893
aF24.234294891357422
aF-11.615427017211914
aF-14.544893264770508
aF13.115493774414062
aF-10.141287803649902
aF-97.62786102294922
aF-16.31884765625
aF-0.19512546062469482
aF46.3021125793457
aF-10.906173706054688
aF-24.08088493347168
aF2.038814067840576
aF-2.9216806888580322
aF-25.86842918395996
aF-20.98626136779785
aF9.347705841064453
aF73.68595886230469
aF-44.30453872680664
aF-24.863534927368164
aF3.443281888961792
aF39.91433334350586
aF-24.142438888549805
aF10.376193046569824
aF42.58523178100586
aF-52.70138168334961
aF-19.623674392700195
aF-3.093173027038574
aF-7.357088565826416
aF-19.78580093383789
aF-35.600379943847656
aF-29.825111389160156
aF3.3187875747680664
aF-27.93055534362793
aF43.402801513671875
aF22.734010696411133
aF-21.383499145507812
aF-24.207778930664062
aF-32.780818939208984
aF-22.54383087158203
aF-35.722923278808594
aF-33.927467346191406
aF17.233036041259766
aF5.039872169494629
aF-28.726943969726562
aF0.04114150255918503
aF-15.46225357055664
aF25.920873641967773
aF-4.606111526489258
aF-8.224695920944214e-05
aF28.631488800048828
aF-20.644811630249023
aF-36.76716613769531
aF10.160122871398926
aF36.57706832885742
aF10.086965560913086
aF-35.32167434692383
aF-8.36868667602539
aF-13.520127296447754
aF-2.1037840843200684
aF-50.8330192565918
aF-4.529741287231445
aF17.182636260986328
aF-3.0198397636413574
aF45.22491455078125
aF57.05223846435547
aF33.25351333618164
aF6.27348518371582
aF-23.2676944732666
aF-31.016502380371094
aF-33.60578155517578
aF-15.169751167297363
aF-5.999069690704346
aF-67.1746826171875
aF17.5883846282959
aF-73.17314147949219
aF-88.31295776367188
aF-33.614681243896484
aF-1.8044590950012207
aF-8.383394241333008
aF0.6285298466682434
aF-43.260169982910156
aF1.583011507987976
aF-30.65591812133789
aF-16.998085021972656
aF-6.630939483642578
aa(lp409
I10
aF0.0
aF0.0
aF0.18181818181818182
aF0.6363636363636364
aF0.0
aI0
aI1
aI0
aI4
aI5
aI0
aI0
aI0
aI0
ag2
(g6
S'F\x17]4?%\xea?'
p410
tp411
Rp412
ag2
(g6
S'\xe9\xa2\x8b\x8e\x1b\xf3\xe9?'
p413
tp414
Rp415
ag2
(g6
S'\xd1E\x17\xdd\x81\x17\xea?'
p416
tp417
Rp418
ag2
(g6
S'\x8c.\xba\x08\x9f\xf8\xe9?'
p419
tp420
Rp421
aF3.743905782699585
aF63.004066467285156
aF-33.63755416870117
aF-11.639643669128418
aF-57.06147766113281
aF8.261995315551758
aF-23.938905715942383
aF-29.375438690185547
aF32.97331237792969
aF7.514847278594971
aF-36.835079193115234
aF-4.037018299102783
aF-64.72924041748047
aF-34.80264663696289
aF-5.920775413513184
aF26.637088775634766
aF-10.880960464477539
aF-15.580589294433594
aF14.000499725341797
aF-12.13371753692627
aF-104.34728240966797
aF-17.42368507385254
aF0.4236249327659607
aF49.928565979003906
aF-11.524436950683594
aF-25.557186126708984
aF1.0503342151641846
aF-2.643002986907959
aF-28.260047912597656
aF-21.920183181762695
aF9.439131736755371
aF80.8947982788086
aF-45.66108322143555
aF-25.951440811157227
aF3.2565712928771973
aF43.451072692871094
aF-26.475627899169922
aF11.455163955688477
aF46.516876220703125
aF-56.624332427978516
aF-21.751646041870117
aF-3.3854312896728516
aF-8.493125915527344
aF-21.552762985229492
aF-38.41767501831055
aF-33.9954948425293
aF4.0390777587890625
aF-29.260265350341797
aF47.701358795166016
aF23.957426071166992
aF-23.034507751464844
aF-26.181718826293945
aF-33.532249450683594
aF-25.230968475341797
aF-37.65040588378906
aF-37.510074615478516
aF19.16045570373535
aF4.628164291381836
aF-32.62839126586914
aF-0.5144205093383789
aF-17.628726959228516
aF28.57657814025879
aF-4.943329811096191
aF-0.16725704073905945
aF29.017974853515625
aF-22.1738338470459
aF-40.166805267333984
aF11.184662818908691
aF39.75846862792969
aF11.000247955322266
aF-36.98399353027344
aF-9.120052337646484
aF-14.033224105834961
aF-1.6624703407287598
aF-55.223045349121094
aF-5.065345287322998
aF18.738243103027344
aF-1.8625117540359497
aF48.43160629272461
aF61.53279495239258
aF35.76966857910156
aF7.598757266998291
aF-24.72083854675293
aF-33.74602508544922
aF-35.35755920410156
aF-15.02183723449707
aF-6.580203533172607
aF-72.92317962646484
aF21.656831741333008
aF-78.70899200439453
aF-94.85250854492188
aF-36.24327850341797
aF-2.7947139739990234
aF-8.320371627807617
aF0.2693237364292145
aF-46.56926345825195
aF0.9902170896530151
aF-31.269140243530273
aF-18.58586311340332
aF-7.336042881011963
aa(lp422
I10
aF0.0
aF0.0
aF0.0
aF0.6363636363636364
aF0.18181818181818182
aI0
aI3
aI1
aI2
aI3
aI0
aI0
aI0
aI1
ag2
(g6
S'\xa3\x8b.ZRY\xe9?'
p423
tp424
Rp425
ag2
(g6
S'/\xba\xe8\x82n\xb6\xe9?'
p426
tp427
Rp428
ag2
(g6
S'\x00\x00\x00\x00A\x07\xea?'
p429
tp430
Rp431
ag2
(g6
S'\x00\x00\x00\xa0\xaf\xb2\xe9?'
p432
tp433
Rp434
aF4.852297782897949
aF76.7127914428711
aF-40.222164154052734
aF-15.374176025390625
aF-69.7977523803711
aF8.555549621582031
aF-28.794973373413086
aF-35.827388763427734
aF41.1870231628418
aF7.847713947296143
aF-45.056068420410156
aF-4.34724235534668
aF-79.05770874023438
aF-43.200828552246094
aF-8.610301971435547
aF32.454063415527344
aF-14.814591407775879
aF-18.82996940612793
aF17.03082275390625
aF-13.111064910888672
aF-128.61036682128906
aF-21.37841033935547
aF-0.6912733316421509
aF60.692832946777344
aF-14.465923309326172
aF-31.49419593811035
aF3.1607816219329834
aF-3.7313151359558105
aF-33.94224548339844
aF-28.15158462524414
aF12.217228889465332
aF96.79725646972656
aF-57.977569580078125
aF-32.370574951171875
aF4.696977138519287
aF52.551361083984375
aF-31.798030853271484
aF14.08438777923584
aF55.41340637207031
aF-69.33210754394531
aF-25.912628173828125
aF-3.9434447288513184
aF-9.441352844238281
aF-26.08814239501953
aF-47.44169998168945
aF-38.78669738769531
aF4.612318992614746
aF-36.732391357421875
aF57.05591583251953
aF29.968074798583984
aF-28.05048179626465
aF-32.23683547973633
aF-43.37328338623047
aF-29.586973190307617
aF-47.404258728027344
aF-44.66844940185547
aF22.557485580444336
aF5.926836967468262
aF-37.8156623840332
aF-0.24597704410552979
aF-20.00690269470215
aF34.230445861816406
aF-5.806792259216309
aF0.015676047652959824
aF37.80280303955078
aF-26.895492553710938
aF-48.418006896972656
aF13.551934242248535
aF48.846866607666016
aF12.332212448120117
aF-45.527889251708984
aF-10.790679931640625
aF-18.122028350830078
aF-2.2015388011932373
aF-66.24456024169922
aF-5.863901138305664
aF22.62464141845703
aF-3.9730985164642334
aF58.846683502197266
aF74.9330825805664
aF42.867454528808594
aF8.296024322509766
aF-30.278867721557617
aF-40.46699523925781
aF-44.057926177978516
aF-20.0015869140625
aF-7.458552837371826
aF-87.77159881591797
aF22.60707664489746
aF-96.47905731201172
aF-115.52094268798828
aF-44.319976806640625
aF-2.0050907135009766
aF-10.382184982299805
aF0.6285284161567688
aF-56.9832763671875
aF2.157827138900757
aF-39.99577331542969
aF-22.94830894470215
aF-8.514471054077148
aa(lp435
I0
aF0.0
aF0.0
aF0.0
aF0.0
aF0.0
aI0
aI0
aI0
aI0
aI0
aI0
aI0
aI0
aI0
aF0.0
aF0.0
aF0.0
aF0.0
aF0.0
aF0.0
aF0.0
aF0.0
aF0.0
aF0.0
aF0.0
aF0.0
aF0.0
aF0.0
aF0.0
aF0.0
aF0.0
aF0.0
aF0.0
aF0.0
aF0.0
aF0.0
aF0.0
aF0.0
aF0.0
aF0.0
aF0.0
aF0.0
aF0.0
aF0.0
aF0.0
aF0.0
aF0.0
aF0.0
aF0.0
aF0.0
aF0.0
aF0.0
aF0.0
aF0.0
aF0.0
aF0.0
aF0.0
aF0.0
aF0.0
aF0.0
aF0.0
aF0.0
aF0.0
aF0.0
aF0.0
aF0.0
aF0.0
aF0.0
aF0.0
aF0.0
aF0.0
aF0.0
aF0.0
aF0.0
aF0.0
aF0.0
aF0.0
aF0.0
aF0.0
aF0.0
aF0.0
aF0.0
aF0.0
aF0.0
aF0.0
aF0.0
aF0.0
aF0.0
aF0.0
aF0.0
aF0.0
aF0.0
aF0.0
aF0.0
aF0.0
aF0.0
aF0.0
aF0.0
aF0.0
aF0.0
aF0.0
aF0.0
aF0.0
aF0.0
aF0.0
aF0.0
aF0.0
aF0.0
aF0.0
aF0.0
aF0.0
aF0.0
aF0.0
aF0.0
aF0.0
aF0.0
aF0.0
aF0.0
aa(lp436
I11
aF0.0
aF0.0
aF0.0
aF0.75
aF0.08333333333333333
aI1
aI1
aI1
aI2
aI5
aI0
aI0
aI0
aI0
ag2
(g6
S'UUU\xad\x04\xc7\xe7?'
p437
tp438
Rp439
ag2
(g6
S'\xab\xaa\xaa:q\xd2\xe7?'
p440
tp441
Rp442
ag2
(g6
S'UUU=\xd9\xe1\xe7?'
p443
tp444
Rp445
ag2
(g6
S'\xab\xaa\xaa\xf2e\xd5\xe7?'
p446
tp447
Rp448
aF3.5924127101898193
aF58.17933654785156
aF-30.34650230407715
aF-11.719090461730957
aF-52.566070556640625
aF6.392089366912842
aF-21.746232986450195
aF-27.13373374938965
aF30.389896392822266
aF6.079920768737793
aF-34.15150451660156
aF-2.878171682357788
aF-58.976444244384766
aF-32.81002426147461
aF-6.557727813720703
aF23.88505744934082
aF-11.531890869140625
aF-14.599069595336914
aF13.020106315612793
aF-9.466231346130371
aF-96.86285400390625
aF-16.309293746948242
aF-0.9189662933349609
aF45.67377853393555
aF-11.077088356018066
aF-23.591960906982422
aF2.6228058338165283
aF-2.546581745147705
aF-25.475704193115234
aF-21.316936492919922
aF9.260245323181152
aF72.56144714355469
aF-43.80955505371094
aF-25.100893020629883
aF3.477510929107666
aF39.83074188232422
aF-23.827295303344727
aF10.262457847595215
aF42.01332092285156
aF-52.197540283203125
aF-19.391103744506836
aF-2.893765926361084
aF-6.89781379699707
aF-19.488826751708984
aF-35.69849395751953
aF-29.19184112548828
aF3.2089734077453613
aF-27.95147132873535
aF42.702640533447266
aF22.333885192871094
aF-21.20830535888672
aF-24.30781364440918
aF-32.684078216552734
aF-22.170520782470703
aF-35.81623077392578
aF-33.6401481628418
aF16.788557052612305
aF4.954544544219971
aF-28.332414627075195
aF0.4395568072795868
aF-15.025694847106934
aF25.217870712280273
aF-4.542154788970947
aF-0.006927073001861572
aF28.842016220092773
aF-20.337299346923828
aF-36.58694076538086
aF9.903478622436523
aF36.59702682495117
aF9.83294677734375
aF-34.96248245239258
aF-7.947293281555176
aF-14.174375534057617
aF-1.7068730592727661
aF-50.12812042236328
aF-4.777059555053711
aF17.306665420532227
aF-3.227302312850952
aF44.12168502807617
aF56.919761657714844
aF32.770328521728516
aF6.076281547546387
aF-23.061336517333984
aF-30.403438568115234
aF-33.02822494506836
aF-15.294598579406738
aF-5.449885845184326
aF-66.14641571044922
aF16.54472541809082
aF-72.95472717285156
aF-87.32671356201172
aF-33.27695083618164
aF-1.0006382465362549
aF-7.417226791381836
aF0.2242923378944397
aF-42.783302307128906
aF1.7290499210357666
aF-30.10627555847168
aF-17.02002716064453
aF-6.416801452636719
aa(lp449
I44
aF0.0
aF0.0
aF0.022222222222222223
aF0.6
aF0.13333333333333333
aI0
aI6
aI0
aI6
aI8
aI0
aI1
aI3
aI1
ag2
(g6
S'\x9a\x99\x99yb\x92\xed?'
p450
tp451
Rp452
ag2
(g6
S'[\xb0\x05[\x97\x99\xed?'
p453
tp454
Rp455
ag2
(g6
S'J\x9f\xf4i\xcb\x9f\xed?'
p456
tp457
Rp458
ag2
(g6
S'\x89\x88\x88h\x1b\xae\xed?'
p459
tp460
Rp461
aF23.755258560180664
aF300.406005859375
aF-161.88343811035156
aF-56.313568115234375
aF-278.9796142578125
aF49.320526123046875
aF-118.23204040527344
aF-146.1112823486328
aF161.34046936035156
aF39.163997650146484
aF-179.2965087890625
aF-18.727991104125977
aF-322.95648193359375
aF-172.6285400390625
aF-26.37331199645996
aF131.84487915039062
aF-48.85795974731445
aF-69.81222534179688
aF69.3552017211914
aF-56.67506408691406
aF-509.94049072265625
aF-79.1485595703125
aF-0.9343962073326111
aF240.3924102783203
aF-52.34808349609375
aF-123.19290161132812
aF3.0116028785705566
aF-10.204984664916992
aF-139.91033935546875
aF-108.27606201171875
aF42.02753448486328
aF395.36041259765625
aF-211.3989715576172
aF-123.28976440429688
aF17.21954345703125
aF218.7035369873047
aF-126.3642807006836
aF58.183616638183594
aF224.44140625
aF-278.3229064941406
aF-107.85880279541016
aF-13.958300590515137
aF-38.954986572265625
aF-98.04690551757812
aF-188.0797119140625
aF-170.20359802246094
aF26.565773010253906
aF-139.59780883789062
aF231.9701690673828
aF111.35481262207031
aF-113.5966796875
aF-125.0723648071289
aF-159.38665771484375
aF-121.95573425292969
aF-183.38990783691406
aF-184.60955810546875
aF92.02268981933594
aF21.510486602783203
aF-161.7477569580078
aF-3.190074920654297
aF-84.50437927246094
aF140.18618774414062
aF-24.35455322265625
aF-4.786205768585205
aF137.56451416015625
aF-110.20548248291016
aF-198.2328643798828
aF52.68943405151367
aF197.36032104492188
aF51.68815231323242
aF-170.73605346679688
aF-38.68338394165039
aF-74.3302993774414
aF-3.0511763095855713
aF-269.7169494628906
aF-30.914026260375977
aF88.0029067993164
aF-7.7925615310668945
aF232.56594848632812
aF298.8481140136719
aF169.80551147460938
aF39.57950973510742
aF-120.9618911743164
aF-161.25636291503906
aF-167.59649658203125
aF-68.42981719970703
aF-25.654739379882812
aF-354.7666015625
aF108.08462524414062
aF-382.90802001953125
aF-455.4543762207031
aF-176.2568359375
aF-10.277464866638184
aF-33.225677490234375
aF-1.7428683042526245
aF-229.9488525390625
aF8.1513671875
aF-143.6123504638672
aF-94.05076599121094
aF-34.13174057006836
aa(lp462
I12
aF0.0
aF0.0
aF0.07692307692307693
aF0.23076923076923078
aF0.23076923076923078
aI0
aI2
aI0
aI1
aI6
aI0
aI0
aI0
aI0
ag2
(g6
S'O\xec\xc4.\xf4Y\xe8?'
p463
tp464
Rp465
ag2
(g6
S"vb'\xf6?\x88\xe8?"
p466
tp467
Rp468
ag2
(g6
S'\xc5N\xec\xe4\x0f`\xe8?'
p469
tp470
Rp471
ag2
(g6
S'\x14;\xb1\xf3,o\xe8?'
p472
tp473
Rp474
aF5.970579624176025
aF59.717559814453125
aF-33.3947868347168
aF-10.112188339233398
aF-56.64284896850586
aF12.866568565368652
aF-24.667726516723633
aF-30.878170013427734
aF31.854768753051758
aF9.738162994384766
aF-36.52608108520508
aF-3.4395954608917236
aF-65.75000762939453
aF-34.77570343017578
aF-3.6894755363464355
aF26.720436096191406
aF-7.883726119995117
aF-13.443222045898438
aF14.34138298034668
aF-11.995536804199219
aF-102.51178741455078
aF-15.322141647338867
aF-0.23489010334014893
aF48.49732971191406
aF-10.088626861572266
aF-24.34241485595703
aF-0.6440220475196838
aF-1.0807945728302002
aF-29.198326110839844
aF-21.45121955871582
aF6.87214994430542
aF81.35961151123047
aF-39.36444854736328
aF-24.818828582763672
aF3.0804343223571777
aF46.055702209472656
aF-25.407867431640625
aF11.596628189086914
aF45.95459747314453
aF-56.059234619140625
aF-22.290565490722656
aF-2.092027425765991
aF-8.072376251220703
aF-19.51495361328125
aF-37.99706268310547
aF-36.78755569458008
aF6.325619220733643
aF-27.198375701904297
aF47.19831848144531
aF20.92772674560547
aF-23.146825790405273
aF-25.22382926940918
aF-30.060001373291016
aF-25.2575740814209
aF-36.53530502319336
aF-38.418846130371094
aF18.839344024658203
aF4.2641987800598145
aF-34.591697692871094
aF-0.6361598968505859
aF-17.74161148071289
aF28.549724578857422
aF-5.30651330947876
aF-1.6572672128677368
aF25.919723510742188
aF-22.92925453186035
aF-40.987770080566406
aF10.309638023376465
aF40.50511932373047
aF10.895596504211426
aF-32.93358612060547
aF-6.827265739440918
aF-15.657973289489746
aF0.9293118715286255
aF-55.30195236206055
aF-7.661445617675781
aF18.208921432495117
aF-0.33426690101623535
aF46.02766418457031
aF61.24193572998047
aF33.655818939208984
aF9.457414627075195
aF-24.58433723449707
aF-32.97782897949219
aF-31.826217651367188
aF-12.162700653076172
aF-4.293481826782227
aF-71.97933197021484
aF24.678544998168945
aF-77.66963195800781
aF-90.92449188232422
aF-35.263187408447266
aF-1.773154377937317
aF-4.725680828094482
aF-1.1748020648956299
aF-46.64518356323242
aF1.3038287162780762
aF-26.175601959228516
aF-19.73023223876953
aF-7.0869340896606445
aa(lp475
I14
aF0.0
aF0.0
aF0.0
aF0.4666666666666667
aF0.13333333333333333
aI0
aI2
aI2
aI2
aI4
aI0
aI0
aI0
aI0
ag2
(g6
S'\xbc\xbb\xbb\xbb|J\xe9?'
p476
tp477
Rp478
ag2
(g6
S'\xbc\xbb\xbb{\xf8a\xe9?'
p479
tp480
Rp481
ag2
(g6
S'\x11\x11\x11\xf1\x95t\xe9?'
p482
tp483
Rp484
ag2
(g6
S'\xcd\xcc\xcc,!o\xe9?'
p485
tp486
Rp487
aF3.060838222503662
aF94.87987518310547
aF-46.87651443481445
aF-20.943500518798828
aF-85.81140899658203
aF5.65607213973999
aF-34.42595291137695
aF-40.365928649902344
aF52.202693939208984
aF5.735867023468018
aF-55.35230255126953
aF-6.1934356689453125
aF-94.41841888427734
aF-52.1197395324707
aF-13.752811431884766
aF39.62775802612305
aF-22.836557388305664
aF-23.334545135498047
aF20.559555053710938
aF-13.017780303955078
aF-155.154541015625
aF-28.80817413330078
aF-0.6995363831520081
aF74.01862335205078
aF-19.147987365722656
aF-40.22896194458008
aF6.619307518005371
aF-6.270538330078125
aF-38.056583404541016
aF-33.558433532714844
aF19.33514976501465
aF113.07862854003906
aF-77.67630004882812
aF-38.87474822998047
aF5.216329097747803
aF61.419464111328125
aF-38.280704498291016
aF17.575101852416992
aF64.37922668457031
aF-82.91429138183594
aF-31.286712646484375
aF-6.449785232543945
aF-8.96455192565918
aF-33.516990661621094
aF-57.346282958984375
aF-42.6653938293457
aF3.8869526386260986
aF-46.471065521240234
aF68.35484313964844
aF38.4760856628418
aF-33.571800231933594
aF-38.62366485595703
aF-57.259765625
aF-33.911136627197266
aF-56.90987014770508
aF-51.60661315917969
aF27.84287452697754
aF9.16479778289795
aF-41.25704574584961
aF-2.2636702060699463
aF-22.136865615844727
aF41.31309509277344
aF-5.5609283447265625
aF1.1621811389923096
aF49.220855712890625
aF-31.976173400878906
aF-55.15362548828125
aF15.694894790649414
aF56.1617317199707
aF14.660468101501465
aF-57.71836853027344
aF-16.93453025817871
aF-20.848426818847656
aF-5.805861473083496
aF-76.91144561767578
aF-4.160782814025879
aF27.986770629882812
aF-7.414424896240234
aF72.22599792480469
aF87.42488861083984
aF51.99585723876953
aF8.008240699768066
aF-35.19602966308594
aF-46.47144317626953
aF-58.11968231201172
aF-27.63661766052246
aF-11.180668830871582
aF-104.10588073730469
aF21.196800231933594
aF-116.65275573730469
aF-140.38589477539062
aF-53.15964889526367
aF-1.991703748703003
aF-18.03005027770996
aF3.4336166381835938
aF-69.41280364990234
aF2.737705945968628
aF-55.23172378540039
aF-27.221281051635742
aF-9.482063293457031
aa(lp488
I0
aF0.0
aF0.0
aF0.0
aF0.0
aF0.0
aI0
aI0
aI0
aI0
aI0
aI0
aI0
aI0
aI0
aF0.0
aF0.0
aF0.0
aF0.0
aF0.0
aF0.0
aF0.0
aF0.0
aF0.0
aF0.0
aF0.0
aF0.0
aF0.0
aF0.0
aF0.0
aF0.0
aF0.0
aF0.0
aF0.0
aF0.0
aF0.0
aF0.0
aF0.0
aF0.0
aF0.0
aF0.0
aF0.0
aF0.0
aF0.0
aF0.0
aF0.0
aF0.0
aF0.0
aF0.0
aF0.0
aF0.0
aF0.0
aF0.0
aF0.0
aF0.0
aF0.0
aF0.0
aF0.0
aF0.0
aF0.0
aF0.0
aF0.0
aF0.0
aF0.0
aF0.0
aF0.0
aF0.0
aF0.0
aF0.0
aF0.0
aF0.0
aF0.0
aF0.0
aF0.0
aF0.0
aF0.0
aF0.0
aF0.0
aF0.0
aF0.0
aF0.0
aF0.0
aF0.0
aF0.0
aF0.0
aF0.0
aF0.0
aF0.0
aF0.0
aF0.0
aF0.0
aF0.0
aF0.0
aF0.0
aF0.0
aF0.0
aF0.0
aF0.0
aF0.0
aF0.0
aF0.0
aF0.0
aF0.0
aF0.0
aF0.0
aF0.0
aF0.0
aF0.0
aF0.0
aF0.0
aF0.0
aF0.0
aF0.0
aF0.0
aF0.0
aF0.0
aF0.0
aF0.0
aF0.0
aa(lp489
I10
aF0.0
aF0.2727272727272727
aF0.0
aF0.36363636363636365
aF0.18181818181818182
aI0
aI2
aI2
aI2
aI2
aI0
aI0
aI0
aI1
ag2
(g6
S'\xe9\xa2\x8b\xce}\xcf\xe9?'
p490
tp491
Rp492
ag2
(g6
S'\xa3\x8b.\xda\x05\xdd\xe8?'
p493
tp494
Rp495
ag2
(g6
S'\xba\xe8\xa2kyP\xe9?'
p496
tp497
Rp498
ag2
(g6
S']t\xd1\x05S\xb3\xe9?'
p499
tp500
Rp501
aF3.9291579723358154
aF68.26360321044922
aF-36.588539123535156
aF-13.122974395751953
aF-62.041473388671875
aF8.024404525756836
aF-25.819957733154297
aF-31.82638168334961
aF36.59288787841797
aF7.591484546661377
aF-39.89082717895508
aF-4.356318473815918
aF-70.43679809570312
aF-37.548526763916016
aF-6.818043231964111
aF29.11161994934082
aF-12.25948715209961
aF-17.139781951904297
aF15.342458724975586
aF-12.823271751403809
aF-113.97623443603516
aF-19.108949661254883
aF0.2089267522096634
aF54.138641357421875
aF-12.94896125793457
aF-27.933130264282227
aF1.788207769393921
aF-3.306412696838379
aF-30.459922790527344
aF-24.11638641357422
aF10.570369720458984
aF87.43302917480469
aF-50.73664474487305
aF-28.139041900634766
aF3.853721857070923
aF46.491188049316406
aF-28.61990737915039
aF12.574783325195312
aF50.06568908691406
aF-61.30759811401367
aF-23.338645935058594
aF-3.728238821029663
aF-9.282376289367676
aF-23.76779556274414
aF-42.102317810058594
aF-35.8217658996582
aF4.062611103057861
aF-32.21621322631836
aF51.547576904296875
aF26.925931930541992
aF-24.927486419677734
aF-28.651010513305664
aF-37.473567962646484
aF-27.235858917236328
aF-41.51909637451172
aF-40.541748046875
aF20.510826110839844
aF4.7212605476379395
aF-34.672157287597656
aF-0.8508279919624329
aF-18.810766220092773
aF30.9592342376709
aF-5.491086959838867
aF-0.029309231787919998
aF32.429874420166016
aF-23.771142959594727
aF-43.42703628540039
aF12.60052490234375
aF43.51017761230469
aF11.095481872558594
aF-40.30962371826172
aF-9.942671775817871
aF-15.279043197631836
aF-2.0200345516204834
aF-59.31805419921875
aF-4.849005222320557
aF20.499799728393555
aF-2.7449216842651367
aF52.576805114746094
aF66.77393341064453
aF38.65133285522461
aF7.8337531089782715
aF-26.641321182250977
aF-36.876888275146484
aF-38.82956314086914
aF-17.077524185180664
aF-7.032289028167725
aF-79.02615356445312
aF22.194950103759766
aF-85.76372528076172
aF-103.16461181640625
aF-39.55281066894531
aF-2.8501389026641846
aF-9.2796049118042
aF0.5862059593200684
aF-50.754634857177734
aF1.3415439128875732
aF-35.044185638427734
aF-20.264223098754883
aF-7.80379581451416
aa(lp502
I11
aF0.0
aF0.16666666666666666
aF0.08333333333333333
aF0.25
aF0.0
aI0
aI0
aI0
aI3
aI3
aI1
aI0
aI0
aI0
ag2
(g6
S'\xab\xaa\xaa\xb2\xe8t\xea?'
p503
tp504
Rp505
ag2
(g6
S'UUU=\xdc\x17\xea?'
p506
tp507
Rp508
ag2
(g6
S'\x00\x00\x00\x90EM\xea?'
p509
tp510
Rp511
ag2
(g6
S'\x00\x00\x00\x98S8\xea?'
p512
tp513
Rp514
aF3.6516714096069336
aF95.41356658935547
aF-49.37060546875
aF-19.564380645751953
aF-85.55763244628906
aF7.267041206359863
aF-35.283958435058594
aF-42.04201126098633
aF51.61564636230469
aF7.941697120666504
aF-55.20478057861328
aF-5.984324932098389
aF-95.89259338378906
aF-51.76090621948242
aF-11.79279613494873
aF39.68076705932617
aF-20.142976760864258
aF-24.317049026489258
aF20.841556549072266
aF-15.889657020568848
aF-156.38720703125
aF-27.97650146484375
aF-0.37158775329589844
aF74.89545440673828
aF-18.743064880371094
aF-39.556800842285156
aF4.6140666007995605
aF-5.705240726470947
aF-40.25511932373047
aF-33.235286712646484
aF16.795866012573242
aF117.36494445800781
aF-74.9104232788086
aF-38.699642181396484
aF5.21933650970459
aF62.085819244384766
aF-39.443424224853516
aF17.18992042541504
aF67.45835876464844
aF-83.84923553466797
aF-31.60862159729004
aF-6.184580326080322
aF-11.155868530273438
aF-33.92756652832031
aF-57.707489013671875
aF-46.08775329589844
aF4.162785053253174
aF-45.96105194091797
aF70.48957061767578
aF38.70349884033203
aF-34.10951614379883
aF-39.615657806396484
aF-54.829227447509766
aF-35.93590545654297
aF-57.46836853027344
aF-54.07178497314453
aF28.00255584716797
aF7.582175254821777
aF-44.59564971923828
aF-1.70331871509552
aF-24.594173431396484
aF41.893489837646484
aF-6.67291259765625
aF0.6473939418792725
aF47.4715576171875
aF-32.110816955566406
aF-57.89339065551758
aF17.249828338623047
aF58.290061950683594
aF15.13914680480957
aF-57.66602325439453
aF-15.981403350830078
aF-20.30423355102539
aF-4.911768913269043
aF-79.68643951416016
aF-4.854536533355713
aF28.605125427246094
aF-5.8333048820495605
aF72.912353515625
aF90.20626831054688
aF53.33936309814453
aF9.136247634887695
aF-35.8408088684082
aF-49.37632369995117
aF-56.164058685302734
aF-25.950429916381836
aF-10.964726448059082
aF-107.27701568603516
aF25.672958374023438
aF-118.11456298828125
aF-142.63079833984375
aF-54.225425720214844
aF-3.766662120819092
aF-16.3663272857666
aF2.273016929626465
aF-69.4189224243164
aF2.123264789581299
aF-52.602420806884766
aF-27.148998260498047
aF-10.418191909790039
aa(lp515
I16
aF0.0
aF0.11764705882352941
aF0.0
aF0.23529411764705882
aF0.23529411764705882
aI1
aI1
aI0
aI2
aI4
aI0
aI0
aI0
aI0
ag2
(g6
S'xxx\x80G\xda\xe8?'
p516
tp517
Rp518
ag2
(g6
S'\x00\x00\x00\x00q\xe9\xeb?'
p519
tp520
Rp521
ag2
(g6
S'\xb5\xb4\xb4l\xaaf\xea?'
p522
tp523
Rp524
ag2
(g6
S'\xe2\xe1\xe1\xb1\xceN\xea?'
p525
tp526
Rp527
aF10.824031829833984
aF136.32064819335938
aF-73.8660659790039
aF-25.91856575012207
aF-127.86941528320312
aF21.93941879272461
aF-54.00595474243164
aF-66.8078842163086
aF74.191650390625
aF17.21807098388672
aF-81.91670227050781
aF-8.54794979095459
aF-146.1142578125
aF-77.97282409667969
aF-12.335558891296387
aF59.84870147705078
aF-22.89348793029785
aF-32.00457000732422
aF31.48529815673828
aF-24.41201400756836
aF-231.95318603515625
aF-37.10825729370117
aF-0.9706365466117859
aF109.14877319335938
aF-25.034496307373047
aF-56.04249954223633
aF2.8130836486816406
aF-4.848231315612793
aF-62.87858200073242
aF-49.49809646606445
aF20.06449317932129
aF178.94998168945312
aF-97.57733154296875
aF-56.331016540527344
aF7.462509632110596
aF99.09838104248047
aF-57.316341400146484
aF26.158891677856445
aF100.94357299804688
aF-125.43223571777344
aF-48.859188079833984
aF-6.334685802459717
aF-16.87027931213379
aF-46.19705581665039
aF-86.197265625
aF-76.11807250976562
aF11.178542137145996
aF-64.41375732421875
aF104.98265838623047
aF51.19214630126953
aF-51.58179473876953
aF-57.80669021606445
aF-73.77297973632812
aF-55.010337829589844
aF-83.61457061767578
aF-83.71524810791016
aF41.79416275024414
aF9.97636890411377
aF-72.67344665527344
aF-2.4541351795196533
aF-37.408538818359375
aF63.91956329345703
aF-10.938064575195312
aF-1.9611815214157104
aF63.554317474365234
aF-49.690711975097656
aF-89.29730987548828
aF23.802263259887695
aF89.39967346191406
aF22.346542358398438
aF-77.58179473876953
aF-18.063196182250977
aF-34.13665771484375
aF-1.2685754299163818
aF-120.94747161865234
aF-13.08737564086914
aF41.43315505981445
aF-4.6890153884887695
aF104.43230438232422
aF136.036865234375
aF76.14839172363281
aF17.734481811523438
aF-54.12554168701172
aF-73.09156036376953
aF-77.10136413574219
aF-32.107688903808594
aF-11.638935089111328
aF-159.88343811035156
aF46.8212776184082
aF-175.0012969970703
aF-206.64907836914062
aF-79.67376708984375
aF-3.2434563636779785
aF-15.16665267944336
aF-0.10094678401947021
aF-104.70620727539062
aF3.478238344192505
aF-66.85414123535156
aF-43.30618667602539
aF-15.19460391998291
aa(lp528
I4
aF0.0
aF0.0
aF0.0
aF0.4
aF0.0
aI0
aI0
aI0
aI2
aI0
aI0
aI0
aI0
aI0
ag2
(g6
S'\x00\x00\x00\x00\x90)\xe3?'
p529
tp530
Rp531
ag2
(g6
S'333\xb3\xdd\xf3\xe2?'
p532
tp533
Rp534
ag2
(g6
S'ffff\xc3\x14\xe3?'
p535
tp536
Rp537
ag2
(g6
S'\x9a\x99\x99\x99:\xa0\xe2?'
p538
tp539
Rp540
aF-0.03507649898529053
aF26.16364097595215
aF-12.525924682617188
aF-6.225796222686768
aF-22.285751342773438
aF-0.9493179321289062
aF-8.738231658935547
aF-10.020246505737305
aF14.259272575378418
aF0.6172772645950317
aF-14.540164947509766
aF-1.4481412172317505
aF-24.20477294921875
aF-13.5690336227417
aF-4.474946975708008
aF10.16622543334961
aF-7.267147064208984
aF-7.175492286682129
aF5.422675132751465
aF-3.3209469318389893
aF-41.382450103759766
aF-8.30917739868164
aF-0.4675425589084625
aF19.855205535888672
aF-5.646612167358398
aF-11.113276481628418
aF2.4882426261901855
aF-2.332702875137329
aF-9.810550689697266
aF-9.020599365234375
aF5.728176593780518
aF29.137826919555664
aF-23.148357391357422
aF-10.748833656311035
aF1.7196643352508545
aF14.724349975585938
aF-10.44396686553955
aF4.438756942749023
aF17.162321090698242
aF-21.81141471862793
aF-7.616587162017822
aF-2.1155145168304443
aF-2.5782413482666016
aF-9.641328811645508
aF-15.172469139099121
aF-9.704376220703125
aF-0.020756393671035767
aF-13.167559623718262
aF17.983821868896484
aF11.63866901397705
aF-8.728854179382324
aF-10.568619728088379
aF-16.675504684448242
aF-8.63971996307373
aF-15.766653060913086
aF-13.202967643737793
aF6.926475524902344
aF2.4426629543304443
aF-9.73594856262207
aF-0.3112325370311737
aF-5.772155284881592
aF10.329850196838379
aF-1.5449020862579346
aF0.9264495372772217
aF14.507643699645996
aF-8.01804256439209
aF-14.305632591247559
aF4.8734869956970215
aF14.618935585021973
aF3.7421422004699707
aF-16.876689910888672
aF-5.160890579223633
aF-4.861362457275391
aF-2.573399543762207
aF-19.897558212280273
aF-0.020923197269439697
aF7.651394844055176
aF-2.902588367462158
aF19.844635009765625
aF23.08567237854004
aF14.364032745361328
aF1.2176413536071777
aF-9.234152793884277
aF-12.703736305236816
aF-16.338878631591797
aF-8.632635116577148
aF-3.578068733215332
aF-27.62770652770996
aF3.7422237396240234
aF-31.137386322021484
aF-38.33848571777344
aF-14.34724235534668
aF-1.035786509513855
aF-6.326340675354004
aF1.4089165925979614
aF-17.954137802124023
aF0.7720008492469788
aF-16.662492752075195
aF-6.423381328582764
aF-2.7278666496276855
aa.