(dp0
((S'pos'
p1
S'neg'
p2
g2
tp3
S'continue'
p4
tp5
I20
s((g1
g2
S'neutral'
p6
tp7
S'more'
p8
tp9
F2.0
s((g1
g6
g2
tp10
S'end'
p11
tp12
I1
s((S'null'
p13
g13
g1
tp14
g11
tp15
I-10
s((g6
g1
g1
tp16
S'short_answer'
p17
tp18
I20
s((g6
g2
g1
tp19
S'oov'
p20
tp21
I20
s((g1
g6
g6
tp22
g8
tp23
I1
s((g2
g6
g1
tp24
g8
tp25
F3.0
s((g6
g2
g6
tp26
g17
tp27
I20
s((g1
g6
g2
tp28
g4
tp29
I20
s((g13
g13
g6
tp30
g20
tp31
I20
s((g2
g6
g1
tp32
g17
tp33
I20
s((g6
g2
g6
tp34
g8
tp35
F1.0
s((g6
g1
g2
tp36
g17
tp37
I20
s((g2
g1
g2
tp38
S'name_entity'
p39
tp40
I20
s((g1
g2
g1
tp41
g17
tp42
I20
s((g6
g6
g2
tp43
g20
tp44
I20
s((g13
g13
g1
tp45
g39
tp46
I20
s((g1
g1
g1
tp47
g11
tp48
F2.0
s((g6
g1
g6
tp49
g20
tp50
I20
s((g2
g6
g2
tp51
g17
tp52
I20
s((g2
g1
g2
tp53
g11
tp54
F1.6666666666666667
s((g1
g6
g2
tp55
S'switch'
p56
tp57
I1
s((g2
g6
g1
tp58
g39
tp59
I20
s((g6
g6
g2
tp60
g56
tp61
F1.0
s((g2
g6
g2
tp62
g56
tp63
I1
s((g1
g1
g6
tp64
g39
tp65
I20
s((g2
g1
g1
tp66
g4
tp67
I20
s((g6
g2
g2
tp68
g11
tp69
F1.875
s((g2
g6
g6
tp70
g4
tp71
I20
s((g13
g13
g6
tp72
g56
tp73
I-10
s((g1
g2
g2
tp74
g39
tp75
I20
s((g1
g1
g6
tp76
g4
tp77
I20
s((g6
g6
g6
tp78
g20
tp79
I20
s((g2
g2
g2
tp80
g39
tp81
I20
s((g2
g2
g1
tp82
g8
tp83
F1.5
s((g1
g2
g6
tp84
g20
tp85
I20
s((g1
g1
g1
tp86
g8
tp87
F2.25
s((g6
g1
g1
tp88
g20
tp89
I20
s((g1
g1
g2
tp90
g56
tp91
F1.3333333333333333
s((g1
g1
g1
tp92
g17
tp93
I20
s((g6
g6
g2
tp94
g39
tp95
I20
s((g6
g2
g6
tp96
g20
tp97
I20
s((g2
g1
g6
tp98
g56
tp99
F2.0
s((g6
g6
g2
tp100
S'joke'
p101
tp102
F1.0
s((g1
g1
g6
tp103
g56
tp104
F2.0
s((g2
g6
g2
tp105
g8
tp106
I1
s((g6
g6
g2
tp107
g11
tp108
F1.0
s((g13
g13
g6
tp109
g39
tp110
I20
s((g6
g2
g1
tp111
g101
tp112
F2.0
s((g6
g2
g6
tp113
g101
tp114
F1.0
s((g2
g1
g6
tp115
g101
tp116
F1.5
s((g1
g1
g2
tp117
g4
tp118
I20
s((g2
g1
g1
tp119
g11
tp120
F1.0
s((g2
g2
g2
tp121
g17
tp122
I20
s((g2
g6
g2
tp123
g20
tp124
I20
s((g1
g6
g6
tp125
g20
tp126
I20
s((g13
g13
g2
tp127
g17
tp128
I20
s((g6
g6
g1
tp129
g17
tp130
I20
s((g6
g6
g1
tp131
g20
tp132
I20
s((g1
g1
g1
tp133
g4
tp134
I20
s((g1
g6
g2
tp135
g101
tp136
I1
s((g6
g2
g1
tp137
g56
tp138
F1.5
s((g6
g2
g2
tp139
g17
tp140
I20
s((g6
g1
g2
tp141
g39
tp142
I20
s((g2
g1
g1
tp143
g39
tp144
I20
s((g13
g13
g2
tp145
g4
tp146
I20
s((g13
g13
g6
tp147
g17
tp148
I20
s((g1
g1
g6
tp149
g17
tp150
I20
s((g2
g2
g2
tp151
g8
tp152
F2.0
s((g1
g6
g1
tp153
g8
tp154
F2.5
s((g1
g1
g2
tp155
g17
tp156
I20
s((g2
g2
g6
tp157
g20
tp158
I20
s((g13
g13
g2
tp159
g56
tp160
I-10
s((g2
g1
g6
tp161
g20
tp162
I20
s((g1
g1
g2
tp163
g8
tp164
F1.6666666666666667
s((g1
g2
g2
tp165
g11
tp166
F1.5
s((g2
g1
g6
tp167
g11
tp168
F2.0
s((g1
g1
g6
tp169
g8
tp170
F2.5
s((g6
g1
g6
tp171
g101
tp172
F1.0
s((g2
g1
g2
tp173
g4
tp174
I20
s((g2
g6
g6
tp175
g39
tp176
I20
s((g2
g6
g6
tp177
g20
tp178
I20
s((g2
g2
g6
tp179
g8
tp180
F1.6666666666666667
s((g13
g13
g6
tp181
g101
tp182
I-10
s((g13
g13
g1
tp183
g17
tp184
I20
s((g2
g1
g6
tp185
g39
tp186
I20
s((g6
g1
g2
tp187
g20
tp188
I20
s((g6
g2
g2
tp189
g8
tp190
F2.125
s((g2
g2
g6
tp191
g39
tp192
I20
s((g2
g6
g6
tp193
g11
tp194
I1
s((g6
g6
g6
tp195
g56
tp196
I1
s((g1
g2
g1
tp197
g8
tp198
F1.5
s((g1
g6
g2
tp199
g8
tp200
I1
s((g6
g6
g2
tp201
g8
tp202
F1.0
s((g1
g1
g2
tp203
g20
tp204
I20
s((g6
g1
g1
tp205
g56
tp206
F1.5
s((g2
g6
g2
tp207
g11
tp208
I1
s((g1
g1
g6
tp209
g101
tp210
F1.5
s((g2
g1
g6
tp211
g17
tp212
I20
s((g2
g1
g1
tp213
g20
tp214
I20
s((g6
g2
g1
tp215
g17
tp216
I20
s((g2
g1
g1
tp217
g101
tp218
F2.0
s((g2
g2
g6
tp219
g11
tp220
F1.6666666666666667
s((g1
g6
g1
tp221
g17
tp222
I20
s((g2
g6
g1
tp223
g11
tp224
F2.0
s((g2
g6
g6
tp225
g17
tp226
I20
s((g6
g6
g1
tp227
g39
tp228
I20
s((g1
g2
g6
tp229
g4
tp230
I20
s((g6
g1
g2
tp231
g101
tp232
F1.5
s((g1
g2
g1
tp233
g4
tp234
I20
s((g2
g2
g2
tp235
g11
tp236
F2.0
s((g6
g6
g6
tp237
g8
tp238
I1
s((g6
g1
g6
tp239
g17
tp240
I20
s((g6
g1
g1
tp241
g11
tp242
F2.0
s((g2
g6
g1
tp243
g101
tp244
F1.0
s((g6
g2
g6
tp245
g4
tp246
I20
s((g1
g2
g6
tp247
g17
tp248
I20
s((g2
g2
g1
tp249
g101
tp250
F1.5
s((g1
g6
g1
tp251
g4
tp252
I20
s((g6
g6
g1
tp253
g101
tp254
F2.0
s((g6
g6
g6
tp255
g11
tp256
I1
s((g1
g2
g6
tp257
g56
tp258
F1.0
s((g1
g6
g1
tp259
g11
tp260
F2.0
s((g6
g2
g6
tp261
g39
tp262
I20
s((g2
g1
g6
tp263
g8
tp264
F2.5
s((g6
g2
g2
tp265
g56
tp266
F1.625
s((g2
g2
g1
tp267
g56
tp268
F1.5
s((g2
g6
g2
tp269
g4
tp270
I20
s((g1
g2
g1
tp271
g39
tp272
I20
s((g2
g6
g2
tp273
g101
tp274
I1
s((g2
g2
g6
tp275
g56
tp276
F1.3333333333333333
s((g2
g1
g1
tp277
g56
tp278
F1.0
s((g1
g6
g1
tp279
g56
tp280
F1.0
s((g6
g2
g6
tp281
g11
tp282
F3.0
s((g6
g6
g6
tp283
g39
tp284
I20
s((g6
g1
g6
tp285
g11
tp286
F1.5
s((g1
g1
g1
tp287
g20
tp288
I20
s((g13
g13
g6
tp289
g4
tp290
I20
s((g1
g1
g1
tp291
g101
tp292
F1.75
s((g6
g2
g6
tp293
g56
tp294
F2.0
s((g1
g2
g1
tp295
g11
tp296
F1.2
s((g2
g6
g1
tp297
g4
tp298
I20
s((g2
g2
g1
tp299
g4
tp300
I20
s((g1
g2
g6
tp301
g11
tp302
F1.0
s((g6
g1
g2
tp303
g8
tp304
F1.0
s((g1
g6
g6
tp305
g101
tp306
I1
s((g2
g2
g2
tp307
g56
tp308
F1.5
s((g13
g13
g2
tp309
g20
tp310
I20
s((g6
g1
g1
tp311
g101
tp312
F1.0
s((g2
g1
g6
tp313
g4
tp314
I20
s((g13
g13
g2
tp315
g8
tp316
I-10
s((g1
g6
g6
tp317
g17
tp318
I20
s((g1
g2
g6
tp319
g101
tp320
F1.0
s((g1
g6
g1
tp321
g39
tp322
I20
s((g6
g6
g6
tp323
g101
tp324
I1
s((g6
g1
g2
tp325
g56
tp326
F1.0
s((g2
g1
g2
tp327
g20
tp328
I20
s((g2
g2
g2
tp329
g101
tp330
F1.5
s((g2
g2
g6
tp331
g101
tp332
F2.0
s((g6
g1
g1
tp333
g8
tp334
F2.5
s((g1
g6
g6
tp335
g39
tp336
I20
s((g1
g2
g1
tp337
g101
tp338
F1.8
s((g1
g1
g1
tp339
g56
tp340
F1.5
s((g6
g1
g2
tp341
g4
tp342
I20
s((g6
g1
g6
tp343
g56
tp344
F1.5
s((g6
g2
g1
tp345
g11
tp346
F1.6666666666666667
s((g6
g2
g1
tp347
g4
tp348
I20
s((g1
g6
g1
tp349
g101
tp350
F1.5
s((g1
g6
g2
tp351
g20
tp352
I20
s((g1
g6
g2
tp353
g39
tp354
I20
s((g1
g6
g6
tp355
g11
tp356
I1
s((g2
g1
g2
tp357
g101
tp358
F1.6666666666666667
s((g6
g2
g2
tp359
g101
tp360
F1.375
s((g2
g2
g1
tp361
g17
tp362
I20
s((g6
g6
g2
tp363
g4
tp364
I20
s((g13
g13
g6
tp365
g11
tp366
I-10
s((g13
g13
g1
tp367
g20
tp368
I20
s((g13
g13
g1
tp369
g101
tp370
I-10
s((g6
g1
g6
tp371
g4
tp372
I20
s((g13
g13
g6
tp373
g8
tp374
I-10
s((g6
g1
g1
tp375
g39
tp376
I20
s((g2
g6
g2
tp377
g39
tp378
I20
s((g2
g1
g2
tp379
g56
tp380
F2.0
s((g6
g2
g2
tp381
g20
tp382
I20
s((g1
g2
g6
tp383
g39
tp384
I20
s((g6
g2
g2
tp385
g4
tp386
I20
s((g2
g1
g1
tp387
g8
tp388
F1.0
s((g1
g1
g2
tp389
g39
tp390
I20
s((g2
g2
g1
tp391
g39
tp392
I20
s((g2
g6
g6
tp393
g101
tp394
I1
s((g2
g6
g1
tp395
g56
tp396
F2.0
s((g1
g6
g1
tp397
g20
tp398
I20
s((g6
g2
g1
tp399
g8
tp400
F2.3333333333333335
s((g13
g13
g2
tp401
g11
tp402
I-10
s((g1
g1
g6
tp403
g11
tp404
F2.5
s((g1
g1
g6
tp405
g20
tp406
I20
s((g1
g2
g2
tp407
g101
tp408
F1.0
s((g6
g6
g6
tp409
g4
tp410
I20
s((g1
g1
g2
tp411
g11
tp412
F1.6666666666666667
s((g2
g6
g6
tp413
g8
tp414
I1
s((g2
g2
g1
tp415
g11
tp416
F2.0
s((g6
g1
g1
tp417
g4
tp418
I20
s((g6
g6
g1
tp419
g56
tp420
F1.0
s((g6
g6
g1
tp421
g8
tp422
F1.0
s((g13
g13
g2
tp423
g39
tp424
I20
s((g2
g2
g2
tp425
g4
tp426
I20
s((g1
g6
g6
tp427
g56
tp428
I1
s((g1
g6
g2
tp429
g17
tp430
I20
s((g1
g1
g1
tp431
g39
tp432
I20
s((g2
g1
g1
tp433
g17
tp434
I20
s((g13
g13
g1
tp435
g56
tp436
I-10
s((g2
g1
g2
tp437
g8
tp438
F2.0
s((g6
g2
g2
tp439
g39
tp440
I20
s((g2
g6
g1
tp441
g20
tp442
I20
s((g2
g2
g1
tp443
g20
tp444
I20
s((g1
g2
g1
tp445
g20
tp446
I20
s((g6
g2
g1
tp447
g39
tp448
I20
s((g1
g2
g2
tp449
g20
tp450
I20
s((g1
g2
g2
tp451
g8
tp452
F1.0
s((g6
g6
g2
tp453
g17
tp454
I20
s((g1
g2
g1
tp455
g56
tp456
F1.6
s((g6
g6
g1
tp457
g11
tp458
F1.0
s((g1
g2
g2
tp459
g17
tp460
I20
s((g1
g6
g6
tp461
g4
tp462
I20
s((g2
g2
g6
tp463
g4
tp464
I20
s((g13
g13
g1
tp465
g8
tp466
I-10
s((g1
g1
g2
tp467
g101
tp468
F1.6666666666666667
s((g13
g13
g1
tp469
g4
tp470
I20
s((g6
g1
g6
tp471
g39
tp472
I20
s((g1
g2
g2
tp473
g56
tp474
F1.5
s((g2
g2
g6
tp475
g17
tp476
I20
s((g6
g1
g6
tp477
g8
tp478
F1.0
s((g2
g6
g6
tp479
g56
tp480
I1
s((g6
g6
g1
tp481
g4
tp482
I20
s((g6
g1
g2
tp483
g11
tp484
F1.5
s((g6
g6
g6
tp485
g17
tp486
I20
s((g2
g2
g2
tp487
g20
tp488
I20
s((g2
g1
g2
tp489
g17
tp490
I20
s((g13
g13
g2
tp491
g101
tp492
I-10
s.