(lp0
I1
aI2
aI1
aI3
aI1
aI3
aI2
aI1
aI1
aI2
aI2
aI1
aI2
aI3
aI3
aI1
aI1
aI3
aI1
aI3
aI3
aI3
aI3
aI3
aI1
aI3
aI3
aI2
aI3
aI3
aI2
aI1
aI2
aI2
aI3
aI3
aI3
aI2
aI2
aI3
aI1
aI2
aI1
aI3
aI3
aI3
aI3
aI2
aI3
aI3
aI2
aI3
aI3
a.