(dp0
((S'neg'
p1
S'neutral'
p2
S'pos'
p3
I6
tp4
S'joke'
p5
tp6
F-5.0
s((g1
g2
g2
I9
tp7
g5
tp8
F-5.0
s((g1
g1
g1
I11
tp9
S'more'
p10
tp11
F5.0
s((g3
g1
g2
I2
tp12
g5
tp13
F-5.0
s((S'null'
p14
g14
S'pos'
p15
I1
tp16
S'switch'
p17
tp18
I-10
s((g2
g2
g1
I2
tp19
S'init'
p20
tp21
F-5.0
s((g3
g1
g1
I8
tp22
S'switch'
p23
tp24
F0.0
s((g3
g3
g1
I9
tp25
S'end'
p26
tp27
F1.6666666666666674
s((g3
g2
g3
I11
tp28
g26
tp29
F5.0
s((g3
g2
g1
I2
tp30
g5
tp31
F-5.0
s((g3
g1
g1
I3
tp32
g26
tp33
F0.0
s((g2
g2
g1
I8
tp34
g26
tp35
F-5.0
s((g1
g3
g1
I4
tp36
g23
tp37
F5.0
s((g3
g1
g2
I10
tp38
g5
tp39
F-5.0
s((g3
g1
g2
I3
tp40
g5
tp41
F-5.0
s((g1
g1
g1
I4
tp42
g20
tp43
F5.0
s((g3
g2
g2
I7
tp44
g5
tp45
F-5.0
s((g1
g1
g3
I2
tp46
g10
tp47
F0.0
s((g2
g2
g1
I4
tp48
g10
tp49
F-5.0
s((g1
g3
g2
I1
tp50
g10
tp51
F10.0
s((g3
g1
g3
I7
tp52
g23
tp53
F1.0000000000000009
s((g1
g1
g3
I11
tp54
g26
tp55
F5.0
s((g2
g3
g1
I1
tp56
g10
tp57
F-5.0
s((g2
g1
g1
I9
tp58
g20
tp59
F3.75
s((g3
g2
g3
I4
tp60
g23
tp61
F-5.0
s((g3
g3
g3
I5
tp62
g26
tp63
F5.0
s((g14
g14
g15
I6
tp64
S'end'
p65
tp66
I-10
s((g2
g2
g3
I2
tp67
g26
tp68
F-5.0
s((g1
g3
g3
I11
tp69
g10
tp70
F-5.0
s((g3
g2
g2
I2
tp71
g26
tp72
F-5.0
s((g3
g1
g2
I9
tp73
g23
tp74
F-5.0
s((g1
g2
g1
I7
tp75
g5
tp76
F-5.0
s((g1
g2
g3
I5
tp77
g26
tp78
F5.0
s((g1
g2
g1
I4
tp79
g5
tp80
F-5.0
s((g2
g2
g2
I4
tp81
g20
tp82
F-5.0
s((g2
g3
g1
I11
tp83
g23
tp84
F-5.0
s((g3
g2
g2
I5
tp85
g10
tp86
F-5.0
s((g3
g1
g2
I8
tp87
g20
tp88
F5.0
s((g2
g2
g2
I3
tp89
g23
tp90
F-5.0
s((g3
g3
g3
I5
tp91
g23
tp92
F0.0
s((g3
g1
g2
I9
tp93
g5
tp94
F-5.0
s((g2
g1
g1
I9
tp95
g5
tp96
F-1.25
s((g2
g2
g3
I6
tp97
g23
tp98
F-5.0
s((g2
g1
g1
I4
tp99
g26
tp100
F3.75
s((g2
g1
g1
I10
tp101
g5
tp102
F-1.25
s((g2
g1
g3
I7
tp103
g26
tp104
F1.6666666666666674
s((g14
g14
S'neg'
p105
I6
tp106
S'joke'
p107
tp108
I-10
s((g2
g3
g1
I6
tp109
g5
tp110
F0.0
s((g14
g14
S'neutral'
p111
I6
tp112
S'more'
p113
tp114
I-10
s((g14
g14
g105
I1
tp115
g17
tp116
I-10
s((g3
g2
g1
I3
tp117
g20
tp118
F-5.0
s((g1
g3
g2
I7
tp119
g20
tp120
F-5.0
s((g2
g2
g1
I2
tp121
g23
tp122
F-5.0
s((g3
g3
g1
I5
tp123
g10
tp124
F1.6666666666666674
s((g3
g1
g3
I6
tp125
g26
tp126
F-3.0000000000000004
s((g1
g3
g1
I10
tp127
g5
tp128
F1.6666666666666674
s((g3
g2
g1
I7
tp129
g26
tp130
F-5.0
s((g14
g14
g15
I3
tp131
g17
tp132
I-10
s((g1
g1
g3
I2
tp133
g5
tp134
F0.0
s((g3
g2
g2
I9
tp135
g23
tp136
F-5.0
s((g2
g3
g1
I10
tp137
g23
tp138
F-5.0
s((g2
g3
g1
I10
tp139
g5
tp140
F0.0
s((g3
g1
g1
I4
tp141
g20
tp142
F-5.0
s((g14
g14
g105
I10
tp143
g113
tp144
I-10
s((g1
g2
g2
I1
tp145
g20
tp146
F-5.0
s((g14
g14
g15
I3
tp147
g65
tp148
I-10
s((g3
g1
g3
I10
tp149
g5
tp150
F3.0000000000000004
s((g3
g3
g3
I10
tp151
g20
tp152
F-2.5
s((g3
g3
g2
I9
tp153
g5
tp154
F0.0
s((g3
g2
g2
I7
tp155
g26
tp156
F-5.0
s((g1
g1
g2
I5
tp157
g5
tp158
F5.0
s((g1
g3
g3
I10
tp159
g23
tp160
F-5.0
s((g2
g2
g2
I8
tp161
g23
tp162
F-5.0
s((g2
g1
g2
I8
tp163
g10
tp164
F-5.0
s((g2
g1
g2
I6
tp165
g10
tp166
F-5.0
s((g2
g2
g1
I6
tp167
g26
tp168
F-5.0
s((g2
g2
g3
I3
tp169
g23
tp170
F-5.0
s((g3
g1
g1
I2
tp171
g23
tp172
F0.0
s((g1
g1
g2
I8
tp173
g10
tp174
F1.6666666666666674
s((g2
g1
g3
I2
tp175
g26
tp176
F1.6666666666666674
s((g3
g3
g2
I9
tp177
g20
tp178
F5.0
s((g2
g3
g2
I5
tp179
g10
tp180
F-5.0
s((g2
g2
g2
I4
tp181
g23
tp182
F-5.0
s((g2
g2
g1
I1
tp183
g20
tp184
F-5.0
s((g2
g2
g1
I4
tp185
g20
tp186
F-5.0
s((g3
g2
g2
I10
tp187
g5
tp188
F-5.0
s((g2
g2
g2
I2
tp189
g10
tp190
F-5.0
s((g3
g3
g3
I5
tp191
g20
tp192
F-2.5
s((g1
g3
g1
I2
tp193
g5
tp194
F1.6666666666666674
s((g1
g2
g2
I11
tp195
g26
tp196
F-5.0
s((g1
g2
g3
I3
tp197
g23
tp198
F5.0
s((g3
g3
g3
I6
tp199
g5
tp200
F2.5
s((g2
g3
g3
I6
tp201
g5
tp202
F-5.0
s((g2
g1
g1
I1
tp203
g23
tp204
F1.25
s((g3
g2
g3
I11
tp205
g23
tp206
F-5.0
s((g3
g2
g1
I7
tp207
g10
tp208
F-5.0
s((g3
g1
g1
I3
tp209
g23
tp210
F0.0
s((g3
g2
g3
I5
tp211
g23
tp212
F-5.0
s((g1
g3
g2
I1
tp213
g26
tp214
F5.0
s((g3
g3
g2
I2
tp215
g20
tp216
F5.0
s((g1
g3
g2
I9
tp217
g23
tp218
F5.0
s((g14
g14
g111
I5
tp219
g65
tp220
I-10
s((g1
g3
g1
I9
tp221
g10
tp222
F5.0
s((g1
g1
g1
I1
tp223
g20
tp224
F5.0
s((g1
g2
g3
I4
tp225
g10
tp226
F15.0
s((g2
g1
g1
I10
tp227
g20
tp228
F3.75
s((g2
g3
g3
I9
tp229
g26
tp230
F5.0
s((g1
g2
g1
I5
tp231
g5
tp232
F-5.0
s((g2
g3
g3
I4
tp233
g20
tp234
F0.0
s((g2
g2
g1
I6
tp235
g10
tp236
F-5.0
s((g1
g3
g2
I10
tp237
g10
tp238
F10.0
s((g1
g3
g1
I5
tp239
g20
tp240
F5.0
s((g3
g3
g2
I3
tp241
g10
tp242
F10.0
s((g1
g2
g2
I8
tp243
g20
tp244
F-5.0
s((g1
g2
g1
I1
tp245
g20
tp246
F-5.0
s((g1
g3
g2
I2
tp247
g26
tp248
F5.0
s((g3
g2
g2
I6
tp249
g23
tp250
F-5.0
s((g3
g3
g2
I3
tp251
g23
tp252
F5.0
s((g2
g1
g1
I5
tp253
g10
tp254
F6.25
s((g1
g1
g1
I9
tp255
g5
tp256
F0.0
s((g14
g14
g111
I4
tp257
g17
tp258
I-10
s((g1
g3
g1
I7
tp259
g20
tp260
F5.0
s((g3
g2
g2
I9
tp261
g26
tp262
F-5.0
s((g1
g2
g1
I9
tp263
g26
tp264
F-5.0
s((g3
g1
g3
I3
tp265
g20
tp266
F-1.0000000000000009
s((g2
g2
g2
I1
tp267
g26
tp268
F-5.0
s((g2
g2
g1
I2
tp269
g5
tp270
F-5.0
s((g2
g2
g1
I1
tp271
g5
tp272
F-5.0
s((g3
g2
g3
I1
tp273
g10
tp274
F10.0
s((g2
g3
g3
I6
tp275
g26
tp276
F5.0
s((g3
g2
g1
I2
tp277
g20
tp278
F-5.0
s((g14
g14
g15
I2
tp279
g17
tp280
I-10
s((g2
g2
g1
I6
tp281
g23
tp282
F-5.0
s((g14
g14
g15
I5
tp283
g65
tp284
I-10
s((g3
g3
g1
I4
tp285
g20
tp286
F5.0
s((g3
g1
g3
I2
tp287
g10
tp288
F0.0
s((g3
g3
g1
I3
tp289
g10
tp290
F1.6666666666666674
s((g1
g3
g2
I10
tp291
g26
tp292
F5.0
s((g2
g2
g3
I11
tp293
g10
tp294
F-5.0
s((g3
g1
g2
I1
tp295
g10
tp296
F5.0
s((g2
g2
g1
I8
tp297
g23
tp298
F-5.0
s((g3
g1
g3
I2
tp299
g23
tp300
F1.0000000000000009
s((g1
g3
g3
I8
tp301
g10
tp302
F-5.0
s((g1
g3
g3
I10
tp303
g10
tp304
F-5.0
s((g3
g3
g3
I4
tp305
g10
tp306
F7.5
s((g2
g3
g1
I11
tp307
g5
tp308
F0.0
s((g2
g2
g1
I9
tp309
g20
tp310
F-5.0
s((g14
g14
g105
I8
tp311
g65
tp312
I-10
s((g3
g3
g2
I2
tp313
g26
tp314
F10.0
s((g3
g2
g2
I1
tp315
g23
tp316
F-5.0
s((g1
g3
g2
I2
tp317
g5
tp318
F0.0
s((g1
g2
g1
I2
tp319
g23
tp320
F-5.0
s((g1
g1
g2
I4
tp321
g23
tp322
F-1.6666666666666674
s((g3
g2
g3
I1
tp323
g23
tp324
F-5.0
s((g1
g3
g3
I4
tp325
g5
tp326
F5.0
s((g1
g1
g2
I3
tp327
g10
tp328
F1.6666666666666674
s((g1
g2
g1
I5
tp329
g26
tp330
F-5.0
s((g2
g3
g1
I1
tp331
g26
tp332
F0.0
s((g2
g2
g2
I5
tp333
g10
tp334
F-5.0
s((g1
g2
g1
I6
tp335
g26
tp336
F-5.0
s((g1
g3
g1
I5
tp337
g10
tp338
F5.0
s((g3
g3
g1
I7
tp339
g23
tp340
F-1.6666666666666674
s((g1
g3
g1
I11
tp341
g26
tp342
F1.6666666666666674
s((g2
g2
g2
I5
tp343
g23
tp344
F-5.0
s((g3
g3
g3
I1
tp345
g20
tp346
F-2.5
s((g1
g1
g1
I9
tp347
g26
tp348
F5.0
s((g3
g2
g3
I6
tp349
g5
tp350
F0.0
s((g2
g1
g2
I11
tp351
g5
tp352
F-5.0
s((g3
g3
g1
I7
tp353
g26
tp354
F1.6666666666666674
s((g2
g2
g3
I11
tp355
g26
tp356
F-5.0
s((g3
g2
g2
I1
tp357
g10
tp358
F-5.0
s((g1
g2
g1
I7
tp359
g23
tp360
F-5.0
s((g2
g3
g2
I5
tp361
g26
tp362
F0.0
s((g1
g2
g2
I1
tp363
g26
tp364
F-5.0
s((g2
g1
g1
I11
tp365
g23
tp366
F1.25
s((g1
g3
g1
I4
tp367
g5
tp368
F1.6666666666666674
s((g3
g1
g3
I11
tp369
g20
tp370
F-1.0000000000000009
s((g14
g14
g111
I2
tp371
g113
tp372
I-10
s((g1
g1
g1
I4
tp373
g5
tp374
F0.0
s((g1
g1
g1
I7
tp375
g5
tp376
F0.0
s((g2
g3
g1
I10
tp377
g26
tp378
F0.0
s((g2
g2
g3
I7
tp379
g5
tp380
F5.0
s((g2
g3
g2
I1
tp381
g23
tp382
F0.0
s((g2
g2
g2
I3
tp383
g26
tp384
F-5.0
s((g2
g1
g2
I7
tp385
g5
tp386
F-5.0
s((g3
g2
g2
I2
tp387
g20
tp388
F-5.0
s((g1
g2
g2
I5
tp389
g23
tp390
F-5.0
s((g3
g1
g3
I1
tp391
g26
tp392
F-3.0000000000000004
s((g3
g3
g2
I9
tp393
g26
tp394
F10.0
s((g3
g2
g2
I3
tp395
g23
tp396
F-5.0
s((g2
g2
g2
I10
tp397
g10
tp398
F-5.0
s((g2
g3
g1
I4
tp399
g10
tp400
F-5.0
s((g2
g2
g3
I3
tp401
g20
tp402
F-5.0
s((g1
g1
g2
I11
tp403
g26
tp404
F1.6666666666666674
s((g1
g2
g3
I4
tp405
g26
tp406
F5.0
s((g2
g3
g3
I1
tp407
g20
tp408
F0.0
s((g2
g1
g1
I3
tp409
g10
tp410
F6.25
s((g3
g1
g1
I4
tp411
g10
tp412
F-5.0
s((g3
g3
g2
I9
tp413
g23
tp414
F5.0
s((g1
g3
g2
I4
tp415
g20
tp416
F-5.0
s((g2
g1
g2
I6
tp417
g26
tp418
F15.0
s((g1
g2
g2
I4
tp419
g26
tp420
F-5.0
s((g1
g1
g1
I10
tp421
g23
tp422
F0.0
s((g1
g2
g2
I6
tp423
g26
tp424
F-5.0
s((g1
g2
g3
I7
tp425
g10
tp426
F15.0
s((g2
g3
g1
I5
tp427
g20
tp428
F-5.0
s((g2
g3
g3
I8
tp429
g26
tp430
F5.0
s((g3
g1
g1
I7
tp431
g20
tp432
F-5.0
s((g3
g1
g1
I10
tp433
g10
tp434
F-5.0
s((g14
g14
g111
I4
tp435
g113
tp436
I-10
s((g1
g2
g1
I1
tp437
g5
tp438
F-5.0
s((g3
g1
g2
I4
tp439
g5
tp440
F-5.0
s((g3
g2
g3
I3
tp441
g23
tp442
F-5.0
s((g2
g2
g3
I6
tp443
g5
tp444
F5.0
s((g1
g2
g1
I9
tp445
g10
tp446
F-5.0
s((g14
g14
g105
I2
tp447
g65
tp448
I-10
s((g2
g2
g2
I9
tp449
g10
tp450
F-5.0
s((g3
g3
g2
I5
tp451
g20
tp452
F5.0
s((g3
g1
g1
I9
tp453
g5
tp454
F-5.0
s((g3
g2
g3
I3
tp455
g26
tp456
F5.0
s((g1
g3
g3
I6
tp457
g10
tp458
F-5.0
s((g2
g3
g1
I2
tp459
g20
tp460
F-5.0
s((g1
g2
g3
I3
tp461
g5
tp462
F-5.0
s((g2
g2
g2
I1
tp463
g5
tp464
F-5.0
s((g3
g3
g3
I2
tp465
g26
tp466
F5.0
s((g2
g3
g1
I4
tp467
g26
tp468
F0.0
s((g3
g2
g2
I2
tp469
g23
tp470
F-5.0
s((g3
g2
g3
I5
tp471
g26
tp472
F5.0
s((g3
g2
g1
I11
tp473
g26
tp474
F-5.0
s((g3
g2
g1
I5
tp475
g26
tp476
F-5.0
s((g1
g2
g2
I3
tp477
g26
tp478
F-5.0
s((g14
g14
g105
I10
tp479
g17
tp480
I-10
s((g3
g1
g1
I9
tp481
g20
tp482
F-5.0
s((g2
g3
g3
I6
tp483
g10
tp484
F10.0
s((g3
g3
g1
I11
tp485
g26
tp486
F1.6666666666666674
s((g2
g3
g1
I10
tp487
g10
tp488
F-5.0
s((g2
g3
g3
I7
tp489
g5
tp490
F-5.0
s((g1
g3
g3
I8
tp491
g26
tp492
F-5.0
s((g1
g1
g1
I3
tp493
g26
tp494
F5.0
s((g3
g2
g3
I7
tp495
g26
tp496
F5.0
s((g3
g2
g3
I3
tp497
g20
tp498
F5.0
s((g2
g3
g3
I4
tp499
g5
tp500
F-5.0
s((g2
g3
g2
I10
tp501
g20
tp502
F0.0
s((g2
g2
g2
I9
tp503
g5
tp504
F-5.0
s((g3
g3
g2
I10
tp505
g5
tp506
F0.0
s((g3
g3
g2
I1
tp507
g5
tp508
F0.0
s((g1
g2
g1
I10
tp509
g20
tp510
F-5.0
s((g2
g1
g2
I7
tp511
g23
tp512
F5.0
s((g3
g1
g3
I8
tp513
g20
tp514
F-1.0000000000000009
s((g1
g2
g1
I3
tp515
g23
tp516
F-5.0
s((g1
g1
g3
I8
tp517
g5
tp518
F0.0
s((g1
g3
g3
I5
tp519
g20
tp520
F5.0
s((g1
g3
g2
I10
tp521
g23
tp522
F5.0
s((g3
g2
g3
I10
tp523
g10
tp524
F10.0
s((g3
g1
g1
I7
tp525
g10
tp526
F-5.0
s((g2
g1
g2
I3
tp527
g26
tp528
F15.0
s((g1
g2
g3
I2
tp529
g26
tp530
F5.0
s((g1
g3
g3
I5
tp531
g5
tp532
F5.0
s((g3
g3
g2
I8
tp533
g10
tp534
F10.0
s((g3
g1
g2
I5
tp535
g10
tp536
F5.0
s((g2
g3
g3
I1
tp537
g5
tp538
F-5.0
s((g2
g3
g3
I2
tp539
g5
tp540
F-5.0
s((g3
g3
g2
I10
tp541
g20
tp542
F5.0
s((g1
g2
g3
I1
tp543
g5
tp544
F-5.0
s((g1
g2
g3
I2
tp545
g23
tp546
F5.0
s((g14
g14
g111
I10
tp547
g107
tp548
I-10
s((g14
g14
g111
I3
tp549
g107
tp550
I-10
s((g14
g14
g105
I5
tp551
g113
tp552
I-10
s((g2
g2
g3
I7
tp553
g20
tp554
F-5.0
s((g1
g1
g3
I9
tp555
g20
tp556
F5.0
s((g3
g2
g2
I5
tp557
g23
tp558
F-5.0
s((g2
g2
g3
I9
tp559
g26
tp560
F-5.0
s((g3
g3
g3
I11
tp561
g5
tp562
F2.5
s((g3
g3
g1
I7
tp563
g20
tp564
F5.0
s((g1
g2
g1
I6
tp565
g23
tp566
F-5.0
s((g1
g3
g2
I7
tp567
g10
tp568
F10.0
s((g3
g2
g3
I11
tp569
g20
tp570
F5.0
s((g1
g2
g2
I2
tp571
g26
tp572
F-5.0
s((g14
g14
g15
I11
tp573
g65
tp574
I-10
s((g1
g2
g1
I2
tp575
g26
tp576
F-5.0
s((g1
g2
g1
I10
tp577
g23
tp578
F-5.0
s((g2
g3
g2
I2
tp579
g10
tp580
F-5.0
s((g1
g1
g3
I8
tp581
g23
tp582
F0.0
s((g3
g1
g3
I7
tp583
g10
tp584
F0.0
s((g1
g3
g1
I9
tp585
g26
tp586
F1.6666666666666674
s((g1
g2
g2
I11
tp587
g10
tp588
F-5.0
s((g3
g2
g3
I9
tp589
g23
tp590
F-5.0
s((g2
g3
g3
I10
tp591
g5
tp592
F-5.0
s((g2
g1
g1
I6
tp593
g10
tp594
F6.25
s((g1
g1
g1
I3
tp595
g20
tp596
F5.0
s((g2
g3
g2
I4
tp597
g23
tp598
F0.0
s((g1
g2
g1
I10
tp599
g26
tp600
F-5.0
s((g3
g2
g1
I6
tp601
g10
tp602
F-5.0
s((g14
g14
g111
I1
tp603
g65
tp604
I-10
s((g1
g2
g2
I6
tp605
g5
tp606
F-5.0
s((g1
g2
g1
I4
tp607
g26
tp608
F-5.0
s((g3
g1
g3
I1
tp609
g23
tp610
F1.0000000000000009
s((g3
g1
g2
I6
tp611
g20
tp612
F5.0
s((g3
g2
g2
I6
tp613
g20
tp614
F-5.0
s((g3
g3
g1
I5
tp615
g23
tp616
F-1.6666666666666674
s((g2
g2
g3
I10
tp617
g5
tp618
F5.0
s((g2
g2
g3
I9
tp619
g5
tp620
F5.0
s((g2
g2
g2
I11
tp621
g5
tp622
F-5.0
s((g14
g14
g15
I4
tp623
g113
tp624
I-10
s((g2
g3
g2
I9
tp625
g20
tp626
F0.0
s((g1
g3
g2
I2
tp627
g20
tp628
F-5.0
s((g3
g2
g1
I4
tp629
g23
tp630
F-5.0
s((g3
g1
g1
I3
tp631
g5
tp632
F-5.0
s((g1
g3
g3
I3
tp633
g26
tp634
F-5.0
s((g2
g3
g3
I8
tp635
g23
tp636
F0.0
s((g3
g2
g1
I5
tp637
g10
tp638
F-5.0
s((g1
g1
g2
I10
tp639
g5
tp640
F5.0
s((g3
g1
g2
I5
tp641
g26
tp642
F-5.0
s((g1
g2
g2
I1
tp643
g5
tp644
F-5.0
s((g3
g2
g1
I6
tp645
g26
tp646
F-5.0
s((g1
g1
g3
I7
tp647
g26
tp648
F5.0
s((g2
g1
g3
I6
tp649
g10
tp650
F8.333333333333336
s((g2
g3
g1
I2
tp651
g23
tp652
F-5.0
s((g1
g1
g3
I2
tp653
g20
tp654
F5.0
s((g2
g3
g1
I8
tp655
g5
tp656
F0.0
s((g2
g2
g3
I8
tp657
g5
tp658
F5.0
s((g3
g3
g1
I4
tp659
g26
tp660
F1.6666666666666674
s((g2
g2
g2
I10
tp661
g23
tp662
F-5.0
s((g3
g1
g2
I11
tp663
g20
tp664
F5.0
s((g2
g3
g1
I6
tp665
g20
tp666
F-5.0
s((g2
g1
g1
I8
tp667
g26
tp668
F3.75
s((g3
g2
g3
I8
tp669
g20
tp670
F5.0
s((g3
g1
g1
I2
tp671
g10
tp672
F-5.0
s((g3
g1
g2
I5
tp673
g5
tp674
F-5.0
s((g3
g1
g1
I11
tp675
g10
tp676
F-5.0
s((g3
g2
g3
I9
tp677
g20
tp678
F5.0
s((g1
g2
g2
I8
tp679
g5
tp680
F-5.0
s((g1
g2
g1
I4
tp681
g20
tp682
F-5.0
s((g1
g2
g2
I11
tp683
g5
tp684
F-5.0
s((g1
g3
g1
I5
tp685
g5
tp686
F1.6666666666666674
s((g2
g2
g1
I4
tp687
g23
tp688
F-5.0
s((g3
g1
g3
I6
tp689
g5
tp690
F3.0000000000000004
s((g3
g1
g3
I4
tp691
g5
tp692
F3.0000000000000004
s((g14
g14
g15
I11
tp693
g17
tp694
I-10
s((g3
g1
g3
I7
tp695
g5
tp696
F3.0000000000000004
s((g3
g3
g2
I2
tp697
g5
tp698
F0.0
s((g1
g2
g3
I2
tp699
g10
tp700
F15.0
s((g1
g1
g1
I1
tp701
g5
tp702
F0.0
s((g3
g3
g1
I2
tp703
g5
tp704
F1.6666666666666674
s((g1
g1
g1
I9
tp705
g23
tp706
F0.0
s((g1
g1
g3
I8
tp707
g10
tp708
F0.0
s((g1
g1
g1
I7
tp709
g23
tp710
F0.0
s((g3
g3
g3
I6
tp711
g20
tp712
F-2.5
s((g2
g1
g1
I4
tp713
g5
tp714
F-1.25
s((g1
g2
g3
I1
tp715
g23
tp716
F5.0
s((g2
g3
g2
I9
tp717
g10
tp718
F-5.0
s((g1
g2
g1
I11
tp719
g10
tp720
F-5.0
s((g3
g3
g2
I1
tp721
g10
tp722
F10.0
s((g1
g3
g2
I2
tp723
g10
tp724
F10.0
s((g14
g14
g15
I5
tp725
g107
tp726
I-10
s((g3
g2
g2
I11
tp727
g20
tp728
F-5.0
s((g3
g3
g3
I1
tp729
g26
tp730
F5.0
s((g1
g1
g2
I11
tp731
g5
tp732
F5.0
s((g3
g3
g3
I8
tp733
g5
tp734
F2.5
s((g3
g1
g1
I5
tp735
g26
tp736
F0.0
s((g1
g3
g3
I1
tp737
g10
tp738
F-5.0
s((g3
g3
g1
I1
tp739
g5
tp740
F1.6666666666666674
s((g2
g1
g2
I1
tp741
g5
tp742
F-5.0
s((g2
g1
g3
I10
tp743
g5
tp744
F5.0
s((g2
g1
g2
I8
tp745
g20
tp746
F-5.0
s((g3
g3
g1
I4
tp747
g5
tp748
F1.6666666666666674
s((g3
g2
g2
I4
tp749
g10
tp750
F-5.0
s((g3
g3
g2
I8
tp751
g5
tp752
F0.0
s((g2
g1
g2
I3
tp753
g10
tp754
F-5.0
s((g2
g1
g2
I1
tp755
g10
tp756
F-5.0
s((g3
g2
g1
I5
tp757
g23
tp758
F-5.0
s((g2
g1
g3
I10
tp759
g23
tp760
F0.0
s((g1
g3
g1
I6
tp761
g20
tp762
F5.0
s((g1
g1
g1
I8
tp763
g5
tp764
F0.0
s((g1
g1
g2
I6
tp765
g26
tp766
F1.6666666666666674
s((g3
g2
g1
I8
tp767
g20
tp768
F-5.0
s((g2
g2
g1
I1
tp769
g10
tp770
F-5.0
s((g1
g1
g2
I2
tp771
g20
tp772
F5.0
s((g1
g1
g3
I7
tp773
g10
tp774
F0.0
s((g1
g3
g2
I6
tp775
g20
tp776
F-5.0
s((g1
g1
g2
I5
tp777
g23
tp778
F-1.6666666666666674
s((g3
g1
g3
I10
tp779
g10
tp780
F0.0
s((g3
g1
g1
I4
tp781
g5
tp782
F-5.0
s((g1
g3
g2
I8
tp783
g26
tp784
F5.0
s((g1
g2
g3
I2
tp785
g5
tp786
F-5.0
s((g3
g2
g1
I2
tp787
g23
tp788
F-5.0
s((g2
g2
g2
I4
tp789
g26
tp790
F-5.0
s((g1
g2
g2
I6
tp791
g20
tp792
F-5.0
s((g2
g3
g1
I8
tp793
g10
tp794
F-5.0
s((g3
g3
g2
I11
tp795
g23
tp796
F5.0
s((g2
g1
g2
I2
tp797
g10
tp798
F-5.0
s((g3
g3
g1
I10
tp799
g23
tp800
F-1.6666666666666674
s((g2
g2
g3
I5
tp801
g23
tp802
F-5.0
s((g2
g2
g3
I9
tp803
g23
tp804
F-5.0
s((g1
g1
g2
I3
tp805
g26
tp806
F1.6666666666666674
s((g14
g14
g105
I9
tp807
g65
tp808
I-10
s((g2
g3
g3
I3
tp809
g10
tp810
F10.0
s((g3
g1
g2
I8
tp811
g5
tp812
F-5.0
s((g1
g3
g3
I2
tp813
g23
tp814
F-5.0
s((g3
g2
g2
I11
tp815
g26
tp816
F-5.0
s((g2
g3
g2
I6
tp817
g10
tp818
F-5.0
s((g1
g2
g1
I8
tp819
g10
tp820
F-5.0
s((g2
g3
g1
I4
tp821
g23
tp822
F-5.0
s((g2
g2
g2
I6
tp823
g20
tp824
F-5.0
s((g2
g3
g1
I7
tp825
g10
tp826
F-5.0
s((g3
g3
g3
I2
tp827
g20
tp828
F-2.5
s((g2
g1
g3
I5
tp829
g5
tp830
F5.0
s((g2
g1
g3
I6
tp831
g5
tp832
F5.0
s((g2
g1
g1
I2
tp833
g26
tp834
F3.75
s((g1
g1
g1
I10
tp835
g10
tp836
F5.0
s((g3
g2
g2
I7
tp837
g20
tp838
F-5.0
s((g14
g14
g15
I9
tp839
g113
tp840
I-10
s((g3
g2
g1
I4
tp841
g26
tp842
F-5.0
s((g3
g3
g1
I4
tp843
g10
tp844
F1.6666666666666674
s((g3
g1
g1
I1
tp845
g10
tp846
F-5.0
s((g3
g1
g1
I3
tp847
g10
tp848
F-5.0
s((g1
g2
g3
I6
tp849
g20
tp850
F-5.0
s((g3
g3
g1
I5
tp851
g26
tp852
F1.6666666666666674
s((g1
g2
g2
I5
tp853
g10
tp854
F-5.0
s((g1
g3
g2
I6
tp855
g26
tp856
F5.0
s((g1
g2
g2
I9
tp857
g20
tp858
F-5.0
s((g3
g1
g2
I5
tp859
g23
tp860
F-5.0
s((g14
g14
g111
I7
tp861
g107
tp862
I-10
s((g1
g1
g3
I6
tp863
g23
tp864
F0.0
s((g1
g3
g3
I7
tp865
g26
tp866
F-5.0
s((g1
g2
g3
I7
tp867
g23
tp868
F5.0
s((g1
g2
g3
I9
tp869
g23
tp870
F5.0
s((g1
g1
g3
I10
tp871
g26
tp872
F5.0
s((g2
g3
g3
I2
tp873
g23
tp874
F0.0
s((g2
g1
g3
I1
tp875
g26
tp876
F1.6666666666666674
s((g1
g1
g2
I11
tp877
g20
tp878
F5.0
s((g2
g1
g2
I10
tp879
g5
tp880
F-5.0
s((g2
g3
g1
I4
tp881
g5
tp882
F0.0
s((g2
g2
g2
I5
tp883
g5
tp884
F-5.0
s((g3
g1
g2
I11
tp885
g5
tp886
F-5.0
s((g2
g1
g3
I11
tp887
g20
tp888
F0.0
s((g1
g1
g3
I4
tp889
g5
tp890
F0.0
s((g2
g3
g1
I6
tp891
g23
tp892
F-5.0
s((g1
g1
g2
I1
tp893
g20
tp894
F5.0
s((g2
g2
g3
I10
tp895
g20
tp896
F-5.0
s((g14
g14
g105
I9
tp897
g113
tp898
I-10
s((g2
g1
g3
I8
tp899
g20
tp900
F0.0
s((g14
g14
g105
I9
tp901
g107
tp902
I-10
s((g3
g2
g3
I8
tp903
g23
tp904
F-5.0
s((g3
g3
g1
I2
tp905
g20
tp906
F5.0
s((g1
g1
g3
I7
tp907
g23
tp908
F0.0
s((g14
g14
g15
I4
tp909
g17
tp910
I-10
s((g2
g2
g1
I10
tp911
g10
tp912
F-5.0
s((g2
g2
g1
I8
tp913
g10
tp914
F-5.0
s((g2
g3
g2
I6
tp915
g20
tp916
F0.0
s((g1
g2
g1
I10
tp917
g5
tp918
F-5.0
s((g1
g1
g3
I11
tp919
g20
tp920
F5.0
s((g2
g2
g2
I9
tp921
g26
tp922
F-5.0
s((g1
g3
g3
I2
tp923
g26
tp924
F-5.0
s((g2
g2
g3
I4
tp925
g10
tp926
F-5.0
s((g1
g3
g3
I6
tp927
g23
tp928
F-5.0
s((g2
g2
g3
I7
tp929
g26
tp930
F-5.0
s((g1
g1
g2
I3
tp931
g23
tp932
F-1.6666666666666674
s((g3
g1
g2
I10
tp933
g26
tp934
F-5.0
s((g1
g3
g3
I2
tp935
g10
tp936
F-5.0
s((g1
g1
g3
I1
tp937
g23
tp938
F0.0
s((g2
g2
g2
I1
tp939
g20
tp940
F-5.0
s((g3
g2
g2
I11
tp941
g23
tp942
F-5.0
s((g3
g3
g2
I7
tp943
g26
tp944
F10.0
s((g14
g14
g15
I6
tp945
g113
tp946
I-10
s((g3
g2
g2
I7
tp947
g10
tp948
F-5.0
s((g2
g1
g3
I1
tp949
g10
tp950
F8.333333333333336
s((g1
g1
g3
I8
tp951
g26
tp952
F5.0
s((g2
g1
g3
I3
tp953
g10
tp954
F8.333333333333336
s((g2
g1
g3
I4
tp955
g10
tp956
F8.333333333333336
s((g14
g14
g105
I3
tp957
g107
tp958
I-10
s((g1
g3
g3
I8
tp959
g23
tp960
F-5.0
s((g14
g14
g111
I10
tp961
g113
tp962
I-10
s((g3
g2
g3
I7
tp963
g23
tp964
F-5.0
s((g1
g2
g3
I10
tp965
g26
tp966
F5.0
s((g2
g1
g1
I11
tp967
g26
tp968
F3.75
s((g1
g2
g2
I9
tp969
g10
tp970
F-5.0
s((g3
g2
g3
I10
tp971
g5
tp972
F0.0
s((g1
g1
g1
I6
tp973
g10
tp974
F5.0
s((g3
g1
g2
I1
tp975
g20
tp976
F5.0
s((g3
g1
g1
I5
tp977
g5
tp978
F-5.0
s((g3
g3
g3
I11
tp979
g10
tp980
F7.5
s((g2
g3
g3
I3
tp981
g23
tp982
F0.0
s((g2
g2
g1
I5
tp983
g23
tp984
F-5.0
s((g2
g3
g2
I6
tp985
g23
tp986
F0.0
s((g3
g3
g1
I3
tp987
g5
tp988
F1.6666666666666674
s((g3
g3
g1
I10
tp989
g5
tp990
F1.6666666666666674
s((g2
g2
g1
I6
tp991
g5
tp992
F-5.0
s((g2
g2
g2
I6
tp993
g5
tp994
F-5.0
s((g2
g1
g2
I5
tp995
g20
tp996
F-5.0
s((g3
g1
g1
I10
tp997
g20
tp998
F-5.0
s((g2
g2
g3
I3
tp999
g5
tp1000
F5.0
s((g2
g3
g1
I7
tp1001
g23
tp1002
F-5.0
s((g3
g1
g1
I8
tp1003
g10
tp1004
F-5.0
s((g3
g3
g1
I2
tp1005
g26
tp1006
F1.6666666666666674
s((g1
g2
g2
I10
tp1007
g20
tp1008
F-5.0
s((g1
g1
g2
I3
tp1009
g20
tp1010
F5.0
s((g2
g1
g1
I3
tp1011
g23
tp1012
F1.25
s((g2
g3
g2
I11
tp1013
g10
tp1014
F-5.0
s((g3
g2
g2
I6
tp1015
g5
tp1016
F-5.0
s((g2
g1
g2
I7
tp1017
g20
tp1018
F-5.0
s((g1
g1
g3
I1
tp1019
g20
tp1020
F5.0
s((g3
g2
g1
I1
tp1021
g5
tp1022
F-5.0
s((g3
g1
g1
I11
tp1023
g26
tp1024
F0.0
s((g2
g1
g2
I2
tp1025
g26
tp1026
F15.0
s((g14
g14
g105
I3
tp1027
g113
tp1028
I-10
s((g2
g2
g2
I7
tp1029
g26
tp1030
F-5.0
s((g1
g1
g3
I3
tp1031
g20
tp1032
F5.0
s((g3
g1
g1
I4
tp1033
g26
tp1034
F0.0
s((g2
g3
g2
I3
tp1035
g23
tp1036
F0.0
s((g3
g1
g3
I5
tp1037
g5
tp1038
F3.0000000000000004
s((g3
g3
g2
I7
tp1039
g20
tp1040
F5.0
s((g2
g1
g3
I9
tp1041
g10
tp1042
F8.333333333333336
s((g2
g1
g2
I4
tp1043
g10
tp1044
F-5.0
s((g1
g1
g1
I5
tp1045
g20
tp1046
F5.0
s((g1
g1
g1
I2
tp1047
g5
tp1048
F0.0
s((g3
g1
g1
I9
tp1049
g10
tp1050
F-5.0
s((g3
g3
g3
I7
tp1051
g26
tp1052
F5.0
s((g14
g14
g111
I7
tp1053
g113
tp1054
I-10
s((g14
g14
g111
I5
tp1055
g113
tp1056
I-10
s((g1
g1
g3
I10
tp1057
g10
tp1058
F0.0
s((g3
g3
g1
I10
tp1059
g26
tp1060
F1.6666666666666674
s((g1
g1
g2
I5
tp1061
g10
tp1062
F1.6666666666666674
s((g2
g1
g3
I3
tp1063
g26
tp1064
F1.6666666666666674
s((g1
g2
g1
I1
tp1065
g26
tp1066
F-5.0
s((g3
g3
g1
I8
tp1067
g10
tp1068
F1.6666666666666674
s((g3
g1
g2
I4
tp1069
g10
tp1070
F5.0
s((g2
g3
g2
I11
tp1071
g26
tp1072
F0.0
s((g3
g2
g1
I3
tp1073
g26
tp1074
F-5.0
s((g3
g2
g2
I7
tp1075
g23
tp1076
F-5.0
s((g1
g1
g2
I8
tp1077
g23
tp1078
F-1.6666666666666674
s((g2
g1
g1
I3
tp1079
g20
tp1080
F3.75
s((g1
g2
g3
I1
tp1081
g20
tp1082
F-5.0
s((g2
g2
g1
I10
tp1083
g23
tp1084
F-5.0
s((g3
g3
g2
I4
tp1085
g23
tp1086
F5.0
s((g3
g2
g2
I4
tp1087
g23
tp1088
F-5.0
s((g2
g1
g3
I5
tp1089
g20
tp1090
F0.0
s((g2
g3
g2
I5
tp1091
g5
tp1092
F-5.0
s((g1
g2
g3
I7
tp1093
g20
tp1094
F-5.0
s((g2
g3
g3
I7
tp1095
g23
tp1096
F0.0
s((g3
g2
g2
I10
tp1097
g10
tp1098
F-5.0
s((g3
g1
g1
I8
tp1099
g20
tp1100
F-5.0
s((g2
g1
g1
I7
tp1101
g26
tp1102
F3.75
s((g2
g3
g1
I9
tp1103
g5
tp1104
F0.0
s((g2
g3
g1
I3
tp1105
g23
tp1106
F-5.0
s((g3
g1
g1
I5
tp1107
g20
tp1108
F-5.0
s((g2
g2
g3
I7
tp1109
g10
tp1110
F-5.0
s((g2
g1
g2
I9
tp1111
g20
tp1112
F-5.0
s((g2
g1
g1
I7
tp1113
g23
tp1114
F1.25
s((g1
g1
g1
I5
tp1115
g23
tp1116
F0.0
s((g2
g2
g3
I2
tp1117
g10
tp1118
F-5.0
s((g2
g1
g3
I10
tp1119
g26
tp1120
F1.6666666666666674
s((g3
g3
g3
I10
tp1121
g5
tp1122
F2.5
s((g2
g1
g3
I8
tp1123
g23
tp1124
F0.0
s((g2
g1
g2
I4
tp1125
g5
tp1126
F-5.0
s((g3
g2
g1
I3
tp1127
g10
tp1128
F-5.0
s((g14
g14
g111
I8
tp1129
g107
tp1130
I-10
s((g2
g2
g3
I1
tp1131
g20
tp1132
F-5.0
s((g14
g14
g105
I6
tp1133
g17
tp1134
I-10
s((g1
g3
g2
I1
tp1135
g20
tp1136
F-5.0
s((g2
g1
g3
I9
tp1137
g20
tp1138
F0.0
s((g2
g1
g1
I9
tp1139
g23
tp1140
F1.25
s((g2
g1
g2
I4
tp1141
g20
tp1142
F-5.0
s((g3
g1
g1
I11
tp1143
g23
tp1144
F0.0
s((g2
g2
g1
I3
tp1145
g23
tp1146
F-5.0
s((g2
g3
g2
I2
tp1147
g20
tp1148
F0.0
s((g3
g3
g3
I1
tp1149
g5
tp1150
F2.5
s((g1
g2
g3
I8
tp1151
g26
tp1152
F5.0
s((g1
g3
g2
I9
tp1153
g10
tp1154
F10.0
s((g2
g2
g1
I4
tp1155
g26
tp1156
F-5.0
s((g3
g1
g3
I11
tp1157
g5
tp1158
F3.0000000000000004
s((g3
g3
g1
I11
tp1159
g20
tp1160
F5.0
s((g3
g1
g3
I5
tp1161
g10
tp1162
F0.0
s((g3
g3
g1
I6
tp1163
g10
tp1164
F1.6666666666666674
s((g1
g1
g1
I2
tp1165
g26
tp1166
F5.0
s((g1
g1
g3
I5
tp1167
g26
tp1168
F5.0
s((g3
g1
g2
I8
tp1169
g10
tp1170
F5.0
s((g3
g2
g3
I7
tp1171
g20
tp1172
F5.0
s((g14
g14
g105
I7
tp1173
g17
tp1174
I-10
s((g1
g3
g2
I5
tp1175
g10
tp1176
F10.0
s((g2
g3
g2
I5
tp1177
g20
tp1178
F0.0
s((g1
g1
g3
I5
tp1179
g23
tp1180
F0.0
s((g2
g2
g2
I7
tp1181
g5
tp1182
F-5.0
s((g1
g2
g3
I10
tp1183
g23
tp1184
F5.0
s((g2
g3
g2
I7
tp1185
g23
tp1186
F0.0
s((g1
g3
g1
I8
tp1187
g26
tp1188
F1.6666666666666674
s((g1
g2
g3
I10
tp1189
g10
tp1190
F15.0
s((g2
g1
g1
I7
tp1191
g20
tp1192
F3.75
s((g1
g3
g3
I11
tp1193
g26
tp1194
F-5.0
s((g2
g3
g3
I9
tp1195
g20
tp1196
F0.0
s((g1
g3
g1
I2
tp1197
g20
tp1198
F5.0
s((g3
g1
g1
I10
tp1199
g26
tp1200
F0.0
s((g2
g3
g3
I5
tp1201
g23
tp1202
F0.0
s((g2
g3
g2
I4
tp1203
g10
tp1204
F-5.0
s((g2
g2
g2
I6
tp1205
g26
tp1206
F-5.0
s((g2
g2
g2
I3
tp1207
g10
tp1208
F-5.0
s((g1
g2
g3
I4
tp1209
g20
tp1210
F-5.0
s((g2
g1
g3
I9
tp1211
g23
tp1212
F0.0
s((g2
g3
g1
I9
tp1213
g26
tp1214
F0.0
s((g14
g14
g105
I8
tp1215
g17
tp1216
I-10
s((g3
g1
g1
I11
tp1217
g20
tp1218
F-5.0
s((g1
g2
g2
I10
tp1219
g23
tp1220
F-5.0
s((g1
g3
g3
I9
tp1221
g20
tp1222
F5.0
s((g2
g3
g2
I2
tp1223
g23
tp1224
F0.0
s((g1
g2
g3
I9
tp1225
g5
tp1226
F-5.0
s((g2
g3
g3
I7
tp1227
g26
tp1228
F5.0
s((g14
g14
g15
I3
tp1229
g113
tp1230
I-10
s((g2
g2
g1
I1
tp1231
g23
tp1232
F-5.0
s((g1
g3
g2
I7
tp1233
g5
tp1234
F0.0
s((g1
g2
g3
I5
tp1235
g10
tp1236
F15.0
s((g2
g1
g3
I10
tp1237
g10
tp1238
F8.333333333333336
s((g1
g2
g3
I11
tp1239
g10
tp1240
F15.0
s((g1
g3
g2
I11
tp1241
g26
tp1242
F5.0
s((g1
g2
g3
I6
tp1243
g26
tp1244
F5.0
s((g1
g3
g3
I1
tp1245
g5
tp1246
F5.0
s((g3
g3
g3
I5
tp1247
g10
tp1248
F7.5
s((g1
g3
g1
I8
tp1249
g10
tp1250
F5.0
s((g3
g2
g2
I5
tp1251
g5
tp1252
F-5.0
s((g3
g1
g3
I9
tp1253
g23
tp1254
F1.0000000000000009
s((g1
g2
g3
I10
tp1255
g5
tp1256
F-5.0
s((g14
g14
g15
I4
tp1257
g65
tp1258
I-10
s((g1
g1
g3
I5
tp1259
g20
tp1260
F5.0
s((g3
g3
g2
I2
tp1261
g23
tp1262
F5.0
s((g3
g3
g1
I1
tp1263
g20
tp1264
F5.0
s((g3
g2
g1
I3
tp1265
g5
tp1266
F-5.0
s((g1
g2
g2
I3
tp1267
g20
tp1268
F-5.0
s((g2
g1
g3
I7
tp1269
g20
tp1270
F0.0
s((g3
g3
g1
I11
tp1271
g10
tp1272
F1.6666666666666674
s((g2
g2
g1
I7
tp1273
g5
tp1274
F-5.0
s((g1
g1
g3
I4
tp1275
g26
tp1276
F5.0
s((g1
g1
g1
I1
tp1277
g23
tp1278
F0.0
s((g1
g2
g3
I8
tp1279
g23
tp1280
F5.0
s((g2
g2
g3
I10
tp1281
g23
tp1282
F-5.0
s((g3
g3
g3
I2
tp1283
g5
tp1284
F2.5
s((g2
g1
g1
I4
tp1285
g10
tp1286
F6.25
s((g3
g1
g2
I7
tp1287
g23
tp1288
F-5.0
s((g3
g1
g1
I7
tp1289
g26
tp1290
F0.0
s((g1
g1
g1
I1
tp1291
g10
tp1292
F5.0
s((g1
g1
g1
I3
tp1293
g10
tp1294
F5.0
s((g3
g2
g3
I8
tp1295
g26
tp1296
F5.0
s((g3
g2
g3
I2
tp1297
g10
tp1298
F10.0
s((g1
g2
g1
I1
tp1299
g23
tp1300
F-5.0
s((g3
g2
g3
I10
tp1301
g23
tp1302
F-5.0
s((g3
g2
g1
I5
tp1303
g5
tp1304
F-5.0
s((g2
g1
g3
I2
tp1305
g20
tp1306
F0.0
s((g2
g1
g1
I2
tp1307
g23
tp1308
F1.25
s((g14
g14
g15
I1
tp1309
g113
tp1310
I-10
s((g2
g1
g1
I5
tp1311
g20
tp1312
F3.75
s((g2
g1
g3
I4
tp1313
g26
tp1314
F1.6666666666666674
s((g1
g2
g1
I7
tp1315
g26
tp1316
F-5.0
s((g2
g2
g2
I11
tp1317
g10
tp1318
F-5.0
s((g1
g3
g2
I11
tp1319
g10
tp1320
F10.0
s((g3
g3
g3
I7
tp1321
g5
tp1322
F2.5
s((g3
g1
g2
I10
tp1323
g20
tp1324
F5.0
s((g1
g1
g2
I8
tp1325
g5
tp1326
F5.0
s((g1
g2
g3
I6
tp1327
g23
tp1328
F5.0
s((g1
g3
g3
I9
tp1329
g10
tp1330
F-5.0
s((g3
g3
g1
I8
tp1331
g5
tp1332
F1.6666666666666674
s((g3
g3
g2
I4
tp1333
g5
tp1334
F0.0
s((g3
g2
g1
I3
tp1335
g23
tp1336
F-5.0
s((g3
g1
g2
I2
tp1337
g20
tp1338
F5.0
s((g3
g2
g2
I8
tp1339
g10
tp1340
F-5.0
s((g2
g3
g3
I5
tp1341
g10
tp1342
F10.0
s((g1
g1
g2
I10
tp1343
g10
tp1344
F1.6666666666666674
s((g2
g2
g1
I3
tp1345
g10
tp1346
F-5.0
s((g3
g1
g2
I8
tp1347
g26
tp1348
F-5.0
s((g2
g3
g1
I7
tp1349
g5
tp1350
F0.0
s((g1
g3
g2
I6
tp1351
g10
tp1352
F10.0
s((g3
g2
g3
I2
tp1353
g23
tp1354
F-5.0
s((g14
g14
g15
I9
tp1355
g107
tp1356
I-10
s((g1
g1
g3
I5
tp1357
g10
tp1358
F0.0
s((g3
g1
g3
I4
tp1359
g20
tp1360
F-1.0000000000000009
s((g1
g3
g3
I10
tp1361
g20
tp1362
F5.0
s((g2
g1
g2
I5
tp1363
g23
tp1364
F5.0
s((g2
g3
g1
I6
tp1365
g10
tp1366
F-5.0
s((g3
g1
g1
I2
tp1367
g20
tp1368
F-5.0
s((g3
g1
g2
I1
tp1369
g26
tp1370
F-5.0
s((g2
g1
g2
I4
tp1371
g23
tp1372
F5.0
s((g1
g3
g2
I5
tp1373
g23
tp1374
F5.0
s((g14
g14
g105
I7
tp1375
g113
tp1376
I-10
s((g2
g1
g3
I8
tp1377
g5
tp1378
F5.0
s((g3
g3
g3
I4
tp1379
g5
tp1380
F2.5
s((g1
g3
g3
I7
tp1381
g20
tp1382
F5.0
s((g1
g2
g1
I8
tp1383
g5
tp1384
F-5.0
s((g3
g1
g3
I9
tp1385
g26
tp1386
F-3.0000000000000004
s((g14
g14
g105
I2
tp1387
g17
tp1388
I-10
s((g2
g2
g2
I5
tp1389
g20
tp1390
F-5.0
s((g1
g1
g3
I6
tp1391
g20
tp1392
F5.0
s((g3
g3
g3
I3
tp1393
g26
tp1394
F5.0
s((g14
g14
g111
I3
tp1395
g113
tp1396
I-10
s((g2
g1
g1
I5
tp1397
g26
tp1398
F3.75
s((g3
g2
g1
I6
tp1399
g5
tp1400
F-5.0
s((g2
g3
g3
I1
tp1401
g10
tp1402
F10.0
s((g14
g14
g105
I3
tp1403
g17
tp1404
I-10
s((g3
g1
g2
I7
tp1405
g5
tp1406
F-5.0
s((g2
g3
g3
I10
tp1407
g10
tp1408
F10.0
s((g2
g3
g2
I3
tp1409
g20
tp1410
F0.0
s((g3
g2
g2
I3
tp1411
g5
tp1412
F-5.0
s((g1
g1
g3
I1
tp1413
g26
tp1414
F5.0
s((g1
g2
g2
I2
tp1415
g10
tp1416
F-5.0
s((g2
g2
g1
I3
tp1417
g26
tp1418
F-5.0
s((g2
g3
g1
I5
tp1419
g10
tp1420
F-5.0
s((g14
g14
g111
I1
tp1421
g107
tp1422
I-10
s((g3
g1
g2
I10
tp1423
g10
tp1424
F5.0
s((g1
g2
g1
I5
tp1425
g23
tp1426
F-5.0
s((g1
g1
g1
I8
tp1427
g10
tp1428
F5.0
s((g14
g14
g111
I10
tp1429
g17
tp1430
I-10
s((g3
g2
g1
I10
tp1431
g20
tp1432
F-5.0
s((g14
g14
g15
I2
tp1433
g113
tp1434
I-10
s((g2
g1
g3
I3
tp1435
g23
tp1436
F0.0
s((g1
g2
g3
I6
tp1437
g10
tp1438
F15.0
s((g3
g1
g2
I3
tp1439
g20
tp1440
F5.0
s((g1
g1
g1
I11
tp1441
g26
tp1442
F5.0
s((g3
g3
g3
I8
tp1443
g10
tp1444
F7.5
s((g2
g1
g3
I3
tp1445
g5
tp1446
F5.0
s((g1
g3
g1
I9
tp1447
g23
tp1448
F5.0
s((g1
g1
g2
I4
tp1449
g10
tp1450
F1.6666666666666674
s((g14
g14
g105
I5
tp1451
g17
tp1452
I-10
s((g2
g3
g1
I11
tp1453
g26
tp1454
F0.0
s((g1
g3
g1
I11
tp1455
g20
tp1456
F5.0
s((g1
g2
g1
I3
tp1457
g10
tp1458
F-5.0
s((g1
g1
g2
I6
tp1459
g5
tp1460
F5.0
s((g3
g1
g3
I10
tp1461
g20
tp1462
F-1.0000000000000009
s((g1
g3
g3
I8
tp1463
g20
tp1464
F5.0
s((g14
g14
g111
I9
tp1465
g107
tp1466
I-10
s((g14
g14
g105
I11
tp1467
g65
tp1468
I-10
s((g3
g1
g3
I9
tp1469
g20
tp1470
F-1.0000000000000009
s((g1
g1
g3
I6
tp1471
g5
tp1472
F0.0
s((g1
g2
g3
I11
tp1473
g26
tp1474
F5.0
s((g3
g2
g1
I11
tp1475
g10
tp1476
F-5.0
s((g3
g2
g1
I7
tp1477
g23
tp1478
F-5.0
s((g2
g3
g2
I9
tp1479
g5
tp1480
F-5.0
s((g14
g14
g15
I7
tp1481
g65
tp1482
I-10
s((g3
g1
g1
I8
tp1483
g26
tp1484
F0.0
s((g2
g3
g1
I10
tp1485
g20
tp1486
F-5.0
s((g3
g2
g1
I9
tp1487
g23
tp1488
F-5.0
s((g1
g3
g3
I5
tp1489
g26
tp1490
F-5.0
s((g2
g2
g1
I8
tp1491
g20
tp1492
F-5.0
s((g2
g3
g3
I3
tp1493
g20
tp1494
F0.0
s((g3
g3
g1
I9
tp1495
g23
tp1496
F-1.6666666666666674
s((g3
g3
g3
I9
tp1497
g20
tp1498
F-2.5
s((g2
g3
g2
I3
tp1499
g10
tp1500
F-5.0
s((g2
g3
g2
I1
tp1501
g10
tp1502
F-5.0
s((g3
g1
g3
I8
tp1503
g10
tp1504
F0.0
s((g3
g3
g1
I9
tp1505
g10
tp1506
F1.6666666666666674
s((g1
g3
g1
I4
tp1507
g26
tp1508
F1.6666666666666674
s((g2
g2
g3
I8
tp1509
g10
tp1510
F-5.0
s((g1
g1
g2
I2
tp1511
g5
tp1512
F5.0
s((g2
g3
g3
I4
tp1513
g26
tp1514
F5.0
s((g2
g1
g2
I1
tp1515
g23
tp1516
F5.0
s((g1
g2
g3
I8
tp1517
g5
tp1518
F-5.0
s((g1
g3
g2
I9
tp1519
g5
tp1520
F0.0
s((g14
g14
g111
I5
tp1521
g17
tp1522
I-10
s((g2
g1
g1
I5
tp1523
g23
tp1524
F1.25
s((g3
g1
g1
I9
tp1525
g23
tp1526
F0.0
s((g2
g2
g2
I9
tp1527
g23
tp1528
F-5.0
s((g3
g2
g2
I10
tp1529
g26
tp1530
F-5.0
s((g2
g1
g1
I8
tp1531
g5
tp1532
F-1.25
s((g1
g2
g2
I7
tp1533
g23
tp1534
F-5.0
s((g1
g3
g1
I11
tp1535
g5
tp1536
F1.6666666666666674
s((g2
g1
g1
I1
tp1537
g5
tp1538
F-1.25
s((g3
g2
g3
I10
tp1539
g26
tp1540
F5.0
s((g2
g1
g1
I2
tp1541
g5
tp1542
F-1.25
s((g2
g2
g3
I3
tp1543
g26
tp1544
F-5.0
s((g2
g1
g1
I10
tp1545
g10
tp1546
F6.25
s((g2
g3
g2
I7
tp1547
g20
tp1548
F0.0
s((g3
g3
g2
I7
tp1549
g23
tp1550
F5.0
s((g1
g1
g1
I10
tp1551
g5
tp1552
F0.0
s((g3
g2
g2
I11
tp1553
g5
tp1554
F-5.0
s((g14
g14
g15
I8
tp1555
g17
tp1556
I-10
s((g14
g14
g15
I6
tp1557
g17
tp1558
I-10
s((g14
g14
g105
I5
tp1559
g65
tp1560
I-10
s((g2
g3
g2
I9
tp1561
g26
tp1562
F0.0
s((g3
g2
g1
I9
tp1563
g20
tp1564
F-5.0
s((g1
g1
g1
I4
tp1565
g10
tp1566
F5.0
s((g1
g2
g1
I7
tp1567
g10
tp1568
F-5.0
s((g14
g14
g105
I4
tp1569
g113
tp1570
I-10
s((g2
g1
g1
I1
tp1571
g10
tp1572
F6.25
s((g1
g1
g1
I6
tp1573
g5
tp1574
F0.0
s((g14
g14
g15
I9
tp1575
g65
tp1576
I-10
s((g1
g2
g2
I4
tp1577
g5
tp1578
F-5.0
s((g2
g2
g2
I2
tp1579
g23
tp1580
F-5.0
s((g2
g2
g3
I4
tp1581
g23
tp1582
F-5.0
s((g3
g1
g3
I7
tp1583
g20
tp1584
F-1.0000000000000009
s((g14
g14
g105
I1
tp1585
g107
tp1586
I-10
s((g1
g2
g2
I5
tp1587
g5
tp1588
F-5.0
s((g2
g2
g3
I5
tp1589
g20
tp1590
F-5.0
s((g1
g3
g3
I11
tp1591
g20
tp1592
F5.0
s((g14
g14
g111
I2
tp1593
g17
tp1594
I-10
s((g1
g3
g3
I2
tp1595
g5
tp1596
F5.0
s((g2
g1
g3
I8
tp1597
g26
tp1598
F1.6666666666666674
s((g1
g3
g2
I5
tp1599
g20
tp1600
F-5.0
s((g3
g2
g3
I5
tp1601
g10
tp1602
F10.0
s((g3
g2
g1
I6
tp1603
g20
tp1604
F-5.0
s((g2
g3
g3
I11
tp1605
g10
tp1606
F10.0
s((g1
g1
g3
I1
tp1607
g10
tp1608
F0.0
s((g2
g2
g1
I10
tp1609
g20
tp1610
F-5.0
s((g2
g2
g2
I9
tp1611
g20
tp1612
F-5.0
s((g2
g3
g3
I11
tp1613
g23
tp1614
F0.0
s((g2
g2
g1
I1
tp1615
g26
tp1616
F-5.0
s((g2
g3
g1
I2
tp1617
g10
tp1618
F-5.0
s((g2
g1
g3
I6
tp1619
g23
tp1620
F0.0
s((g1
g3
g3
I4
tp1621
g10
tp1622
F-5.0
s((g2
g3
g3
I7
tp1623
g20
tp1624
F0.0
s((g2
g3
g1
I7
tp1625
g26
tp1626
F0.0
s((g2
g2
g3
I8
tp1627
g20
tp1628
F-5.0
s((g2
g2
g1
I7
tp1629
g20
tp1630
F-5.0
s((g1
g3
g3
I3
tp1631
g20
tp1632
F5.0
s((g2
g3
g1
I8
tp1633
g20
tp1634
F-5.0
s((g3
g2
g1
I9
tp1635
g5
tp1636
F-5.0
s((g3
g1
g1
I6
tp1637
g23
tp1638
F0.0
s((g3
g3
g2
I6
tp1639
g26
tp1640
F10.0
s((g1
g3
g1
I1
tp1641
g5
tp1642
F1.6666666666666674
s((g2
g3
g1
I3
tp1643
g20
tp1644
F-5.0
s((g3
g3
g3
I8
tp1645
g26
tp1646
F5.0
s((g3
g1
g2
I7
tp1647
g26
tp1648
F-5.0
s((g1
g1
g2
I7
tp1649
g10
tp1650
F1.6666666666666674
s((g3
g3
g3
I1
tp1651
g10
tp1652
F7.5
s((g3
g2
g2
I4
tp1653
g5
tp1654
F-5.0
s((g2
g3
g1
I5
tp1655
g26
tp1656
F0.0
s((g2
g3
g2
I7
tp1657
g26
tp1658
F0.0
s((g1
g3
g3
I11
tp1659
g23
tp1660
F-5.0
s((g1
g1
g2
I9
tp1661
g20
tp1662
F5.0
s((g3
g3
g3
I7
tp1663
g23
tp1664
F0.0
s((g14
g14
g111
I9
tp1665
g113
tp1666
I-10
s((g3
g2
g3
I6
tp1667
g26
tp1668
F5.0
s((g3
g1
g3
I7
tp1669
g26
tp1670
F-3.0000000000000004
s((g2
g3
g2
I9
tp1671
g23
tp1672
F0.0
s((g1
g3
g2
I5
tp1673
g5
tp1674
F0.0
s((g3
g3
g2
I3
tp1675
g26
tp1676
F10.0
s((g3
g3
g1
I3
tp1677
g26
tp1678
F1.6666666666666674
s((g2
g2
g2
I3
tp1679
g5
tp1680
F-5.0
s((g3
g1
g2
I6
tp1681
g5
tp1682
F-5.0
s((g1
g1
g3
I7
tp1683
g5
tp1684
F0.0
s((g2
g3
g2
I1
tp1685
g26
tp1686
F0.0
s((g1
g3
g1
I10
tp1687
g23
tp1688
F5.0
s((g3
g2
g3
I6
tp1689
g23
tp1690
F-5.0
s((g14
g14
g111
I10
tp1691
g65
tp1692
I-10
s((g2
g1
g2
I5
tp1693
g10
tp1694
F-5.0
s((g14
g14
g111
I1
tp1695
g113
tp1696
I-10
s((g2
g2
g3
I8
tp1697
g23
tp1698
F-5.0
s((g2
g3
g1
I5
tp1699
g5
tp1700
F0.0
s((g3
g1
g2
I1
tp1701
g5
tp1702
F-5.0
s((g2
g1
g2
I10
tp1703
g23
tp1704
F5.0
s((g1
g2
g2
I10
tp1705
g26
tp1706
F-5.0
s((g2
g3
g2
I5
tp1707
g23
tp1708
F0.0
s((g1
g2
g2
I9
tp1709
g26
tp1710
F-5.0
s((g2
g1
g2
I3
tp1711
g5
tp1712
F-5.0
s((g3
g3
g2
I10
tp1713
g10
tp1714
F10.0
s((g3
g1
g3
I8
tp1715
g23
tp1716
F1.0000000000000009
s((g3
g1
g2
I7
tp1717
g10
tp1718
F5.0
s((g3
g2
g1
I8
tp1719
g26
tp1720
F-5.0
s((g2
g2
g3
I2
tp1721
g20
tp1722
F-5.0
s((g1
g2
g1
I5
tp1723
g10
tp1724
F-5.0
s((g1
g1
g2
I7
tp1725
g5
tp1726
F5.0
s((g1
g1
g2
I4
tp1727
g5
tp1728
F5.0
s((g1
g3
g2
I10
tp1729
g20
tp1730
F-5.0
s((g1
g3
g3
I3
tp1731
g10
tp1732
F-5.0
s((g2
g3
g1
I3
tp1733
g5
tp1734
F0.0
s((g1
g1
g2
I9
tp1735
g26
tp1736
F1.6666666666666674
s((g3
g1
g3
I6
tp1737
g23
tp1738
F1.0000000000000009
s((g1
g2
g2
I8
tp1739
g23
tp1740
F-5.0
s((g3
g3
g1
I6
tp1741
g5
tp1742
F1.6666666666666674
s((g14
g14
g15
I5
tp1743
g113
tp1744
I-10
s((g1
g2
g1
I8
tp1745
g23
tp1746
F-5.0
s((g1
g2
g3
I11
tp1747
g23
tp1748
F5.0
s((g1
g1
g1
I5
tp1749
g26
tp1750
F5.0
s((g1
g2
g3
I3
tp1751
g10
tp1752
F15.0
s((g2
g3
g1
I1
tp1753
g20
tp1754
F-5.0
s((g2
g1
g2
I10
tp1755
g26
tp1756
F15.0
s((g2
g3
g3
I1
tp1757
g23
tp1758
F0.0
s((g2
g2
g1
I8
tp1759
g5
tp1760
F-5.0
s((g3
g3
g1
I6
tp1761
g20
tp1762
F5.0
s((g3
g3
g2
I2
tp1763
g10
tp1764
F10.0
s((g3
g3
g2
I5
tp1765
g10
tp1766
F10.0
s((g3
g3
g2
I11
tp1767
g10
tp1768
F10.0
s((g3
g2
g3
I6
tp1769
g20
tp1770
F5.0
s((g2
g3
g1
I5
tp1771
g23
tp1772
F-5.0
s((g2
g3
g3
I5
tp1773
g5
tp1774
F-5.0
s((g3
g2
g3
I5
tp1775
g5
tp1776
F0.0
s((g3
g1
g1
I10
tp1777
g5
tp1778
F-5.0
s((g1
g3
g2
I3
tp1779
g26
tp1780
F5.0
s((g1
g1
g1
I9
tp1781
g20
tp1782
F5.0
s((g3
g3
g3
I8
tp1783
g23
tp1784
F0.0
s((g3
g3
g3
I6
tp1785
g23
tp1786
F0.0
s((g14
g14
g15
I2
tp1787
g65
tp1788
I-10
s((g1
g2
g3
I7
tp1789
g5
tp1790
F-5.0
s((g1
g2
g3
I4
tp1791
g5
tp1792
F-5.0
s((g1
g3
g2
I7
tp1793
g23
tp1794
F5.0
s((g2
g2
g2
I5
tp1795
g26
tp1796
F-5.0
s((g2
g2
g2
I10
tp1797
g26
tp1798
F-5.0
s((g1
g2
g2
I3
tp1799
g23
tp1800
F-5.0
s((g14
g14
g15
I10
tp1801
g113
tp1802
I-10
s((g1
g2
g1
I11
tp1803
g20
tp1804
F-5.0
s((g3
g1
g1
I9
tp1805
g26
tp1806
F0.0
s((g3
g2
g2
I9
tp1807
g20
tp1808
F-5.0
s((g2
g1
g1
I3
tp1809
g5
tp1810
F-1.25
s((g14
g14
g105
I4
tp1811
g107
tp1812
I-10
s((g14
g14
g105
I7
tp1813
g107
tp1814
I-10
s((g1
g2
g2
I1
tp1815
g23
tp1816
F-5.0
s((g2
g2
g1
I9
tp1817
g23
tp1818
F-5.0
s((g3
g2
g1
I10
tp1819
g23
tp1820
F-5.0
s((g2
g2
g2
I7
tp1821
g23
tp1822
F-5.0
s((g1
g2
g2
I6
tp1823
g10
tp1824
F-5.0
s((g3
g1
g3
I11
tp1825
g26
tp1826
F-3.0000000000000004
s((g1
g2
g2
I1
tp1827
g10
tp1828
F-5.0
s((g3
g1
g3
I1
tp1829
g20
tp1830
F-1.0000000000000009
s((g3
g2
g2
I8
tp1831
g23
tp1832
F-5.0
s((g3
g1
g2
I9
tp1833
g10
tp1834
F5.0
s((g2
g2
g1
I3
tp1835
g5
tp1836
F-5.0
s((g2
g1
g1
I2
tp1837
g20
tp1838
F3.75
s((g14
g14
g111
I6
tp1839
g65
tp1840
I-10
s((g3
g2
g1
I8
tp1841
g23
tp1842
F-5.0
s((g14
g14
g105
I2
tp1843
g113
tp1844
I-10
s((g3
g2
g2
I8
tp1845
g26
tp1846
F-5.0
s((g1
g3
g2
I2
tp1847
g23
tp1848
F5.0
s((g3
g2
g1
I8
tp1849
g10
tp1850
F-5.0
s((g2
g1
g2
I3
tp1851
g23
tp1852
F5.0
s((g14
g14
g111
I6
tp1853
g17
tp1854
I-10
s((g3
g3
g3
I1
tp1855
g23
tp1856
F0.0
s((g2
g1
g2
I4
tp1857
g26
tp1858
F15.0
s((g2
g3
g3
I2
tp1859
g26
tp1860
F5.0
s((g2
g3
g3
I8
tp1861
g20
tp1862
F0.0
s((g2
g2
g1
I9
tp1863
g10
tp1864
F-5.0
s((g2
g1
g2
I7
tp1865
g26
tp1866
F15.0
s((g1
g3
g2
I9
tp1867
g20
tp1868
F-5.0
s((g3
g2
g1
I7
tp1869
g20
tp1870
F-5.0
s((g2
g2
g1
I11
tp1871
g20
tp1872
F-5.0
s((g3
g3
g2
I11
tp1873
g20
tp1874
F5.0
s((g1
g1
g3
I9
tp1875
g26
tp1876
F5.0
s((g2
g1
g1
I10
tp1877
g23
tp1878
F1.25
s((g1
g2
g3
I11
tp1879
g5
tp1880
F-5.0
s((g14
g14
g105
I1
tp1881
g113
tp1882
I-10
s((g14
g14
g15
I5
tp1883
g17
tp1884
I-10
s((g3
g1
g1
I2
tp1885
g26
tp1886
F0.0
s((g3
g2
g1
I1
tp1887
g10
tp1888
F-5.0
s((g2
g2
g2
I10
tp1889
g20
tp1890
F-5.0
s((g1
g2
g2
I5
tp1891
g20
tp1892
F-5.0
s((g2
g3
g1
I4
tp1893
g20
tp1894
F-5.0
s((g3
g1
g1
I6
tp1895
g26
tp1896
F0.0
s((g1
g2
g2
I2
tp1897
g23
tp1898
F-5.0
s((g3
g3
g2
I3
tp1899
g20
tp1900
F5.0
s((g1
g3
g2
I4
tp1901
g5
tp1902
F0.0
s((g3
g3
g3
I2
tp1903
g23
tp1904
F0.0
s((g2
g2
g3
I7
tp1905
g23
tp1906
F-5.0
s((g2
g1
g2
I1
tp1907
g26
tp1908
F15.0
s((g3
g3
g3
I3
tp1909
g20
tp1910
F-2.5
s((g1
g3
g3
I5
tp1911
g23
tp1912
F-5.0
s((g1
g2
g1
I9
tp1913
g5
tp1914
F-5.0
s((g1
g2
g2
I9
tp1915
g23
tp1916
F-5.0
s((g1
g3
g1
I7
tp1917
g10
tp1918
F5.0
s((g3
g3
g2
I8
tp1919
g23
tp1920
F5.0
s((g1
g1
g1
I10
tp1921
g20
tp1922
F5.0
s((g3
g3
g1
I10
tp1923
g10
tp1924
F1.6666666666666674
s((g2
g2
g2
I3
tp1925
g20
tp1926
F-5.0
s((g3
g1
g3
I3
tp1927
g10
tp1928
F0.0
s((g1
g1
g1
I11
tp1929
g23
tp1930
F0.0
s((g3
g2
g3
I2
tp1931
g20
tp1932
F5.0
s((g1
g2
g2
I7
tp1933
g26
tp1934
F-5.0
s((g1
g1
g1
I8
tp1935
g26
tp1936
F5.0
s((g3
g1
g1
I7
tp1937
g23
tp1938
F0.0
s((g2
g2
g3
I6
tp1939
g26
tp1940
F-5.0
s((g3
g3
g3
I5
tp1941
g5
tp1942
F2.5
s((g2
g1
g1
I2
tp1943
g10
tp1944
F6.25
s((g3
g2
g2
I6
tp1945
g26
tp1946
F-5.0
s((g1
g1
g1
I7
tp1947
g20
tp1948
F5.0
s((g3
g1
g2
I11
tp1949
g26
tp1950
F-5.0
s((g3
g3
g2
I8
tp1951
g26
tp1952
F10.0
s((g3
g2
g2
I10
tp1953
g20
tp1954
F-5.0
s((g3
g2
g1
I2
tp1955
g10
tp1956
F-5.0
s((g2
g2
g3
I2
tp1957
g23
tp1958
F-5.0
s((g3
g2
g1
I10
tp1959
g26
tp1960
F-5.0
s((g3
g1
g3
I5
tp1961
g23
tp1962
F1.0000000000000009
s((g3
g1
g2
I9
tp1963
g26
tp1964
F-5.0
s((g14
g14
g105
I11
tp1965
g17
tp1966
I-10
s((g1
g1
g2
I2
tp1967
g10
tp1968
F1.6666666666666674
s((g2
g1
g2
I11
tp1969
g20
tp1970
F-5.0
s((g1
g3
g3
I2
tp1971
g20
tp1972
F5.0
s((g1
g1
g2
I11
tp1973
g23
tp1974
F-1.6666666666666674
s((g1
g2
g1
I3
tp1975
g26
tp1976
F-5.0
s((g2
g3
g2
I8
tp1977
g10
tp1978
F-5.0
s((g3
g2
g2
I1
tp1979
g20
tp1980
F-5.0
s((g14
g14
g15
I7
tp1981
g17
tp1982
I-10
s((g1
g3
g1
I1
tp1983
g20
tp1984
F5.0
s((g2
g2
g2
I1
tp1985
g10
tp1986
F-5.0
s((g3
g3
g1
I6
tp1987
g26
tp1988
F1.6666666666666674
s((g1
g3
g3
I7
tp1989
g10
tp1990
F-5.0
s((g1
g3
g1
I10
tp1991
g20
tp1992
F5.0
s((g3
g3
g1
I6
tp1993
g23
tp1994
F-1.6666666666666674
s((g3
g1
g3
I2
tp1995
g20
tp1996
F-1.0000000000000009
s((g3
g2
g2
I3
tp1997
g26
tp1998
F-5.0
s((g3
g2
g2
I2
tp1999
g10
tp2000
F-5.0
s((g3
g2
g1
I4
tp2001
g20
tp2002
F-5.0
s((g3
g2
g1
I1
tp2003
g20
tp2004
F-5.0
s((g1
g3
g2
I6
tp2005
g23
tp2006
F5.0
s((g2
g2
g1
I10
tp2007
g5
tp2008
F-5.0
s((g3
g2
g1
I2
tp2009
g26
tp2010
F-5.0
s((g1
g3
g2
I3
tp2011
g20
tp2012
F-5.0
s((g3
g1
g2
I4
tp2013
g23
tp2014
F-5.0
s((g2
g2
g3
I5
tp2015
g5
tp2016
F5.0
s((g1
g2
g2
I6
tp2017
g23
tp2018
F-5.0
s((g2
g2
g2
I6
tp2019
g10
tp2020
F-5.0
s((g1
g1
g3
I4
tp2021
g10
tp2022
F0.0
s((g3
g3
g1
I10
tp2023
g20
tp2024
F5.0
s((g1
g1
g1
I8
tp2025
g20
tp2026
F5.0
s((g1
g3
g2
I3
tp2027
g23
tp2028
F5.0
s((g3
g3
g2
I6
tp2029
g20
tp2030
F5.0
s((g3
g2
g3
I1
tp2031
g26
tp2032
F5.0
s((g2
g2
g2
I2
tp2033
g5
tp2034
F-5.0
s((g2
g1
g3
I11
tp2035
g26
tp2036
F1.6666666666666674
s((g2
g2
g1
I9
tp2037
g26
tp2038
F-5.0
s((g3
g2
g2
I8
tp2039
g20
tp2040
F-5.0
s((g2
g1
g3
I5
tp2041
g23
tp2042
F0.0
s((g3
g3
g3
I6
tp2043
g26
tp2044
F5.0
s((g2
g3
g2
I10
tp2045
g26
tp2046
F0.0
s((g14
g14
g111
I1
tp2047
g17
tp2048
I-10
s((g14
g14
g105
I10
tp2049
g107
tp2050
I-10
s((g14
g14
g105
I4
tp2051
g17
tp2052
I-10
s((g3
g2
g1
I10
tp2053
g5
tp2054
F-5.0
s((g3
g2
g1
I1
tp2055
g23
tp2056
F-5.0
s((g1
g3
g1
I1
tp2057
g26
tp2058
F1.6666666666666674
s((g1
g2
g3
I5
tp2059
g23
tp2060
F5.0
s((g1
g2
g1
I1
tp2061
g10
tp2062
F-5.0
s((g1
g1
g3
I10
tp2063
g5
tp2064
F0.0
s((g14
g14
g15
I1
tp2065
g107
tp2066
I-10
s((g14
g14
g105
I4
tp2067
g65
tp2068
I-10
s((g14
g14
g111
I2
tp2069
g65
tp2070
I-10
s((g1
g3
g3
I9
tp2071
g26
tp2072
F-5.0
s((g14
g14
g105
I6
tp2073
g113
tp2074
I-10
s((g3
g3
g3
I4
tp2075
g26
tp2076
F5.0
s((g3
g2
g1
I11
tp2077
g20
tp2078
F-5.0
s((g2
g1
g1
I9
tp2079
g10
tp2080
F6.25
s((g2
g1
g1
I11
tp2081
g10
tp2082
F6.25
s((g3
g3
g1
I5
tp2083
g5
tp2084
F1.6666666666666674
s((g1
g2
g2
I11
tp2085
g20
tp2086
F-5.0
s((g2
g2
g2
I10
tp2087
g5
tp2088
F-5.0
s((g2
g2
g1
I11
tp2089
g23
tp2090
F-5.0
s((g2
g2
g1
I2
tp2091
g26
tp2092
F-5.0
s((g1
g3
g1
I7
tp2093
g26
tp2094
F1.6666666666666674
s((g1
g1
g3
I11
tp2095
g5
tp2096
F0.0
s((g2
g1
g3
I8
tp2097
g10
tp2098
F8.333333333333336
s((g2
g3
g2
I6
tp2099
g5
tp2100
F-5.0
s((g2
g1
g2
I7
tp2101
g10
tp2102
F-5.0
s((g1
g1
g3
I2
tp2103
g26
tp2104
F5.0
s((g3
g3
g3
I9
tp2105
g10
tp2106
F7.5
s((g1
g1
g3
I9
tp2107
g10
tp2108
F0.0
s((g1
g1
g3
I11
tp2109
g10
tp2110
F0.0
s((g1
g3
g1
I3
tp2111
g23
tp2112
F5.0
s((g2
g2
g1
I5
tp2113
g20
tp2114
F-5.0
s((g1
g2
g2
I4
tp2115
g10
tp2116
F-5.0
s((g2
g2
g3
I4
tp2117
g20
tp2118
F-5.0
s((g3
g3
g1
I7
tp2119
g10
tp2120
F1.6666666666666674
s((g1
g3
g3
I10
tp2121
g5
tp2122
F5.0
s((g14
g14
g15
I11
tp2123
g107
tp2124
I-10
s((g2
g3
g3
I8
tp2125
g5
tp2126
F-5.0
s((g1
g2
g2
I2
tp2127
g20
tp2128
F-5.0
s((g1
g2
g2
I4
tp2129
g23
tp2130
F-5.0
s((g1
g1
g2
I1
tp2131
g23
tp2132
F-1.6666666666666674
s((g3
g3
g1
I5
tp2133
g20
tp2134
F5.0
s((g3
g1
g1
I2
tp2135
g5
tp2136
F-5.0
s((g3
g3
g1
I2
tp2137
g23
tp2138
F-1.6666666666666674
s((g3
g2
g1
I6
tp2139
g23
tp2140
F-5.0
s((g3
g2
g1
I10
tp2141
g10
tp2142
F-5.0
s((g3
g3
g2
I8
tp2143
g20
tp2144
F5.0
s((g1
g3
g3
I9
tp2145
g5
tp2146
F5.0
s((g2
g3
g2
I8
tp2147
g5
tp2148
F-5.0
s((g1
g2
g3
I9
tp2149
g10
tp2150
F15.0
s((g1
g1
g1
I11
tp2151
g20
tp2152
F5.0
s((g1
g1
g2
I7
tp2153
g26
tp2154
F1.6666666666666674
s((g3
g3
g3
I7
tp2155
g10
tp2156
F7.5
s((g2
g2
g1
I2
tp2157
g10
tp2158
F-5.0
s((g1
g1
g2
I9
tp2159
g23
tp2160
F-1.6666666666666674
s((g2
g3
g2
I7
tp2161
g10
tp2162
F-5.0
s((g2
g3
g2
I10
tp2163
g23
tp2164
F0.0
s((g2
g3
g2
I4
tp2165
g26
tp2166
F0.0
s((g3
g3
g1
I3
tp2167
g23
tp2168
F-1.6666666666666674
s((g1
g3
g2
I7
tp2169
g26
tp2170
F5.0
s((g1
g2
g1
I3
tp2171
g20
tp2172
F-5.0
s((g14
g14
g105
I10
tp2173
g65
tp2174
I-10
s((g2
g3
g2
I4
tp2175
g5
tp2176
F-5.0
s((g3
g3
g3
I10
tp2177
g23
tp2178
F0.0
s((g2
g3
g2
I11
tp2179
g5
tp2180
F-5.0
s((g2
g3
g3
I9
tp2181
g5
tp2182
F-5.0
s((g3
g2
g3
I4
tp2183
g20
tp2184
F5.0
s((g2
g1
g3
I1
tp2185
g5
tp2186
F5.0
s((g2
g1
g3
I2
tp2187
g5
tp2188
F5.0
s((g2
g2
g3
I11
tp2189
g5
tp2190
F5.0
s((g3
g1
g2
I2
tp2191
g26
tp2192
F-5.0
s((g2
g1
g2
I8
tp2193
g26
tp2194
F15.0
s((g2
g2
g2
I7
tp2195
g20
tp2196
F-5.0
s((g3
g3
g2
I3
tp2197
g5
tp2198
F0.0
s((g1
g2
g2
I7
tp2199
g5
tp2200
F-5.0
s((g3
g1
g2
I11
tp2201
g23
tp2202
F-5.0
s((g3
g2
g2
I3
tp2203
g20
tp2204
F-5.0
s((g2
g2
g2
I4
tp2205
g5
tp2206
F-5.0
s((g1
g1
g1
I3
tp2207
g5
tp2208
F0.0
s((g3
g3
g2
I10
tp2209
g23
tp2210
F5.0
s((g2
g1
g3
I7
tp2211
g10
tp2212
F8.333333333333336
s((g3
g2
g3
I7
tp2213
g10
tp2214
F10.0
s((g3
g1
g1
I5
tp2215
g10
tp2216
F-5.0
s((g3
g2
g2
I5
tp2217
g20
tp2218
F-5.0
s((g3
g1
g3
I5
tp2219
g26
tp2220
F-3.0000000000000004
s((g1
g2
g1
I9
tp2221
g23
tp2222
F-5.0
s((g1
g2
g2
I7
tp2223
g10
tp2224
F-5.0
s((g3
g3
g1
I1
tp2225
g26
tp2226
F1.6666666666666674
s((g3
g1
g3
I4
tp2227
g10
tp2228
F0.0
s((g3
g1
g3
I6
tp2229
g10
tp2230
F0.0
s((g3
g2
g2
I4
tp2231
g26
tp2232
F-5.0
s((g3
g2
g1
I7
tp2233
g5
tp2234
F-5.0
s((g1
g2
g2
I8
tp2235
g10
tp2236
F-5.0
s((g3
g2
g1
I4
tp2237
g5
tp2238
F-5.0
s((g2
g1
g1
I7
tp2239
g10
tp2240
F6.25
s((g14
g14
g111
I7
tp2241
g65
tp2242
I-10
s((g3
g1
g2
I4
tp2243
g26
tp2244
F-5.0
s((g1
g2
g2
I3
tp2245
g5
tp2246
F-5.0
s((g2
g3
g1
I6
tp2247
g26
tp2248
F0.0
s((g2
g1
g3
I5
tp2249
g26
tp2250
F1.6666666666666674
s((g2
g1
g2
I6
tp2251
g23
tp2252
F5.0
s((g2
g1
g3
I1
tp2253
g23
tp2254
F0.0
s((g2
g3
g3
I2
tp2255
g20
tp2256
F0.0
s((g14
g14
g111
I8
tp2257
g17
tp2258
I-10
s((g2
g2
g3
I2
tp2259
g5
tp2260
F5.0
s((g3
g3
g2
I11
tp2261
g26
tp2262
F10.0
s((g1
g1
g3
I3
tp2263
g23
tp2264
F0.0
s((g2
g2
g2
I4
tp2265
g10
tp2266
F-5.0
s((g1
g3
g2
I9
tp2267
g26
tp2268
F5.0
s((g2
g2
g2
I8
tp2269
g20
tp2270
F-5.0
s((g14
g14
g105
I9
tp2271
g17
tp2272
I-10
s((g2
g3
g1
I9
tp2273
g10
tp2274
F-5.0
s((g2
g1
g1
I9
tp2275
g26
tp2276
F3.75
s((g2
g3
g1
I8
tp2277
g23
tp2278
F-5.0
s((g3
g3
g3
I11
tp2279
g20
tp2280
F-2.5
s((g3
g3
g1
I1
tp2281
g10
tp2282
F1.6666666666666674
s((g14
g14
g105
I11
tp2283
g113
tp2284
I-10
s((g3
g3
g2
I1
tp2285
g20
tp2286
F5.0
s((g2
g3
g2
I10
tp2287
g5
tp2288
F-5.0
s((g1
g3
g2
I8
tp2289
g5
tp2290
F0.0
s((g2
g1
g3
I5
tp2291
g10
tp2292
F8.333333333333336
s((g1
g3
g1
I3
tp2293
g5
tp2294
F1.6666666666666674
s((g2
g1
g1
I4
tp2295
g20
tp2296
F3.75
s((g14
g14
g111
I8
tp2297
g113
tp2298
I-10
s((g3
g3
g1
I9
tp2299
g5
tp2300
F1.6666666666666674
s((g3
g2
g1
I11
tp2301
g23
tp2302
F-5.0
s((g3
g2
g3
I5
tp2303
g20
tp2304
F5.0
s((g2
g2
g3
I11
tp2305
g23
tp2306
F-5.0
s((g14
g14
g15
I10
tp2307
g107
tp2308
I-10
s((g3
g1
g3
I4
tp2309
g23
tp2310
F1.0000000000000009
s((g3
g2
g2
I4
tp2311
g20
tp2312
F-5.0
s((g2
g1
g1
I11
tp2313
g5
tp2314
F-1.25
s((g1
g2
g1
I11
tp2315
g23
tp2316
F-5.0
s((g2
g1
g2
I6
tp2317
g20
tp2318
F-5.0
s((g1
g1
g1
I7
tp2319
g26
tp2320
F5.0
s((g3
g2
g3
I2
tp2321
g26
tp2322
F5.0
s((g2
g2
g3
I8
tp2323
g26
tp2324
F-5.0
s((g14
g14
g111
I5
tp2325
g107
tp2326
I-10
s((g1
g1
g3
I2
tp2327
g23
tp2328
F0.0
s((g3
g2
g3
I11
tp2329
g5
tp2330
F0.0
s((g3
g2
g3
I8
tp2331
g5
tp2332
F0.0
s((g1
g1
g1
I2
tp2333
g10
tp2334
F5.0
s((g2
g1
g2
I2
tp2335
g5
tp2336
F-5.0
s((g2
g3
g3
I6
tp2337
g23
tp2338
F0.0
s((g3
g1
g1
I1
tp2339
g5
tp2340
F-5.0
s((g2
g1
g3
I9
tp2341
g5
tp2342
F5.0
s((g1
g3
g2
I1
tp2343
g5
tp2344
F0.0
s((g1
g2
g1
I7
tp2345
g20
tp2346
F-5.0
s((g1
g3
g1
I3
tp2347
g26
tp2348
F1.6666666666666674
s((g3
g3
g2
I11
tp2349
g5
tp2350
F0.0
s((g14
g14
g15
I11
tp2351
g113
tp2352
I-10
s((g3
g3
g1
I7
tp2353
g5
tp2354
F1.6666666666666674
s((g2
g3
g2
I2
tp2355
g5
tp2356
F-5.0
s((g2
g2
g1
I11
tp2357
g5
tp2358
F-5.0
s((g3
g1
g1
I5
tp2359
g23
tp2360
F0.0
s((g1
g3
g1
I2
tp2361
g26
tp2362
F1.6666666666666674
s((g3
g1
g2
I1
tp2363
g23
tp2364
F-5.0
s((g3
g1
g3
I2
tp2365
g26
tp2366
F-3.0000000000000004
s((g1
g3
g1
I7
tp2367
g23
tp2368
F5.0
s((g2
g2
g3
I1
tp2369
g5
tp2370
F5.0
s((g3
g2
g2
I1
tp2371
g26
tp2372
F-5.0
s((g3
g2
g3
I9
tp2373
g10
tp2374
F10.0
s((g1
g3
g3
I10
tp2375
g26
tp2376
F-5.0
s((g1
g2
g1
I11
tp2377
g26
tp2378
F-5.0
s((g14
g14
g111
I9
tp2379
g17
tp2380
I-10
s((g2
g1
g2
I3
tp2381
g20
tp2382
F-5.0
s((g2
g2
g2
I8
tp2383
g10
tp2384
F-5.0
s((g3
g3
g3
I11
tp2385
g26
tp2386
F5.0
s((g1
g2
g1
I4
tp2387
g10
tp2388
F-5.0
s((g1
g1
g2
I10
tp2389
g20
tp2390
F5.0
s((g3
g1
g1
I8
tp2391
g5
tp2392
F-5.0
s((g3
g1
g1
I11
tp2393
g5
tp2394
F-5.0
s((g2
g2
g1
I6
tp2395
g20
tp2396
F-5.0
s((g1
g2
g1
I2
tp2397
g5
tp2398
F-5.0
s((g3
g3
g1
I3
tp2399
g20
tp2400
F5.0
s((g2
g2
g3
I11
tp2401
g20
tp2402
F-5.0
s((g1
g1
g3
I8
tp2403
g20
tp2404
F5.0
s((g3
g2
g2
I9
tp2405
g10
tp2406
F-5.0
s((g3
g3
g1
I4
tp2407
g23
tp2408
F-1.6666666666666674
s((g1
g3
g2
I11
tp2409
g5
tp2410
F0.0
s((g3
g3
g2
I5
tp2411
g23
tp2412
F5.0
s((g14
g14
g105
I8
tp2413
g107
tp2414
I-10
s((g14
g14
g105
I11
tp2415
g107
tp2416
I-10
s((g3
g1
g2
I10
tp2417
g23
tp2418
F-5.0
s((g1
g1
g2
I11
tp2419
g10
tp2420
F1.6666666666666674
s((g1
g1
g1
I8
tp2421
g23
tp2422
F0.0
s((g2
g1
g2
I2
tp2423
g23
tp2424
F5.0
s((g2
g3
g2
I4
tp2425
g20
tp2426
F0.0
s((g2
g2
g2
I11
tp2427
g20
tp2428
F-5.0
s((g3
g1
g3
I4
tp2429
g26
tp2430
F-3.0000000000000004
s((g3
g2
g2
I2
tp2431
g5
tp2432
F-5.0
s((g1
g3
g1
I8
tp2433
g23
tp2434
F5.0
s((g2
g1
g3
I11
tp2435
g23
tp2436
F0.0
s((g3
g1
g2
I6
tp2437
g23
tp2438
F-5.0
s((g3
g3
g1
I2
tp2439
g10
tp2440
F1.6666666666666674
s((g1
g2
g1
I2
tp2441
g20
tp2442
F-5.0
s((g1
g2
g3
I1
tp2443
g26
tp2444
F5.0
s((g3
g1
g2
I2
tp2445
g10
tp2446
F5.0
s((g1
g1
g2
I9
tp2447
g5
tp2448
F5.0
s((g3
g2
g3
I1
tp2449
g20
tp2450
F5.0
s((g2
g3
g3
I9
tp2451
g23
tp2452
F0.0
s((g2
g3
g3
I5
tp2453
g20
tp2454
F0.0
s((g1
g1
g2
I2
tp2455
g23
tp2456
F-1.6666666666666674
s((g1
g2
g3
I5
tp2457
g20
tp2458
F-5.0
s((g3
g3
g1
I1
tp2459
g23
tp2460
F-1.6666666666666674
s((g14
g14
g105
I3
tp2461
g65
tp2462
I-10
s((g1
g3
g3
I9
tp2463
g23
tp2464
F-5.0
s((g3
g3
g1
I9
tp2465
g20
tp2466
F5.0
s((g1
g3
g3
I7
tp2467
g23
tp2468
F-5.0
s((g3
g3
g2
I10
tp2469
g26
tp2470
F10.0
s((g1
g2
g2
I11
tp2471
g23
tp2472
F-5.0
s((g2
g2
g2
I1
tp2473
g23
tp2474
F-5.0
s((g2
g2
g1
I5
tp2475
g26
tp2476
F-5.0
s((g3
g1
g1
I1
tp2477
g20
tp2478
F-5.0
s((g14
g14
g105
I8
tp2479
g113
tp2480
I-10
s((g2
g1
g2
I2
tp2481
g20
tp2482
F-5.0
s((g1
g1
g2
I1
tp2483
g5
tp2484
F5.0
s((g2
g1
g2
I11
tp2485
g23
tp2486
F5.0
s((g2
g3
g1
I2
tp2487
g26
tp2488
F0.0
s((g1
g1
g1
I9
tp2489
g10
tp2490
F5.0
s((g1
g3
g2
I8
tp2491
g23
tp2492
F5.0
s((g2
g1
g2
I9
tp2493
g5
tp2494
F-5.0
s((g1
g1
g3
I3
tp2495
g26
tp2496
F5.0
s((g2
g3
g1
I3
tp2497
g26
tp2498
F0.0
s((g2
g1
g3
I2
tp2499
g10
tp2500
F8.333333333333336
s((g3
g3
g2
I1
tp2501
g26
tp2502
F10.0
s((g2
g1
g2
I10
tp2503
g10
tp2504
F-5.0
s((g2
g1
g2
I9
tp2505
g23
tp2506
F5.0
s((g3
g3
g3
I3
tp2507
g10
tp2508
F7.5
s((g14
g14
g111
I11
tp2509
g113
tp2510
I-10
s((g3
g3
g3
I11
tp2511
g23
tp2512
F0.0
s((g1
g3
g3
I6
tp2513
g26
tp2514
F-5.0
s((g3
g2
g3
I3
tp2515
g5
tp2516
F0.0
s((g1
g3
g2
I4
tp2517
g23
tp2518
F5.0
s((g3
g3
g2
I1
tp2519
g23
tp2520
F5.0
s((g2
g3
g2
I7
tp2521
g5
tp2522
F-5.0
s((g2
g1
g3
I6
tp2523
g26
tp2524
F1.6666666666666674
s((g3
g3
g3
I3
tp2525
g5
tp2526
F2.5
s((g2
g1
g3
I3
tp2527
g20
tp2528
F0.0
s((g3
g1
g3
I1
tp2529
g10
tp2530
F0.0
s((g2
g2
g3
I10
tp2531
g10
tp2532
F-5.0
s((g2
g3
g3
I10
tp2533
g26
tp2534
F5.0
s((g2
g3
g2
I11
tp2535
g20
tp2536
F0.0
s((g3
g1
g2
I6
tp2537
g26
tp2538
F-5.0
s((g3
g1
g3
I3
tp2539
g5
tp2540
F3.0000000000000004
s((g3
g3
g2
I6
tp2541
g5
tp2542
F0.0
s((g3
g3
g1
I8
tp2543
g26
tp2544
F1.6666666666666674
s((g1
g3
g1
I7
tp2545
g5
tp2546
F1.6666666666666674
s((g3
g1
g3
I10
tp2547
g23
tp2548
F1.0000000000000009
s((g1
g1
g2
I8
tp2549
g26
tp2550
F1.6666666666666674
s((g1
g1
g1
I3
tp2551
g23
tp2552
F0.0
s((g3
g3
g3
I4
tp2553
g23
tp2554
F0.0
s((g2
g3
g3
I8
tp2555
g10
tp2556
F10.0
s((g14
g14
g111
I3
tp2557
g17
tp2558
I-10
s((g1
g3
g1
I1
tp2559
g10
tp2560
F5.0
s((g1
g3
g2
I4
tp2561
g10
tp2562
F10.0
s((g1
g3
g1
I4
tp2563
g10
tp2564
F5.0
s((g3
g1
g2
I2
tp2565
g23
tp2566
F-5.0
s((g2
g2
g1
I11
tp2567
g26
tp2568
F-5.0
s((g2
g1
g2
I8
tp2569
g23
tp2570
F5.0
s((g2
g2
g2
I2
tp2571
g26
tp2572
F-5.0
s((g14
g14
g105
I2
tp2573
g107
tp2574
I-10
s((g3
g1
g3
I9
tp2575
g10
tp2576
F0.0
s((g3
g3
g3
I9
tp2577
g5
tp2578
F2.5
s((g3
g1
g1
I1
tp2579
g26
tp2580
F0.0
s((g14
g14
g111
I3
tp2581
g65
tp2582
I-10
s((g2
g3
g3
I3
tp2583
g5
tp2584
F-5.0
s((g1
g3
g1
I2
tp2585
g23
tp2586
F5.0
s((g1
g1
g2
I6
tp2587
g23
tp2588
F-1.6666666666666674
s((g1
g2
g2
I5
tp2589
g26
tp2590
F-5.0
s((g1
g2
g1
I9
tp2591
g20
tp2592
F-5.0
s((g3
g3
g2
I5
tp2593
g5
tp2594
F0.0
s((g2
g3
g2
I8
tp2595
g23
tp2596
F0.0
s((g2
g2
g1
I5
tp2597
g5
tp2598
F-5.0
s((g1
g1
g3
I1
tp2599
g5
tp2600
F0.0
s((g2
g2
g1
I9
tp2601
g5
tp2602
F-5.0
s((g2
g3
g1
I9
tp2603
g23
tp2604
F-5.0
s((g1
g3
g3
I6
tp2605
g20
tp2606
F5.0
s((g1
g1
g2
I10
tp2607
g23
tp2608
F-1.6666666666666674
s((g1
g2
g3
I1
tp2609
g10
tp2610
F15.0
s((g1
g1
g3
I4
tp2611
g20
tp2612
F5.0
s((g1
g1
g3
I3
tp2613
g10
tp2614
F0.0
s((g14
g14
g15
I7
tp2615
g113
tp2616
I-10
s((g1
g1
g1
I10
tp2617
g26
tp2618
F5.0
s((g2
g3
g1
I7
tp2619
g20
tp2620
F-5.0
s((g3
g2
g1
I11
tp2621
g5
tp2622
F-5.0
s((g3
g2
g1
I8
tp2623
g5
tp2624
F-5.0
s((g1
g3
g3
I1
tp2625
g23
tp2626
F-5.0
s((g1
g3
g1
I10
tp2627
g26
tp2628
F1.6666666666666674
s((g2
g3
g1
I11
tp2629
g10
tp2630
F-5.0
s((g3
g1
g1
I6
tp2631
g5
tp2632
F-5.0
s((g2
g1
g3
I1
tp2633
g20
tp2634
F0.0
s((g2
g3
g1
I8
tp2635
g26
tp2636
F0.0
s((g2
g2
g2
I11
tp2637
g23
tp2638
F-5.0
s((g1
g1
g3
I10
tp2639
g20
tp2640
F5.0
s((g1
g2
g1
I6
tp2641
g5
tp2642
F-5.0
s((g1
g2
g1
I3
tp2643
g5
tp2644
F-5.0
s((g3
g3
g1
I8
tp2645
g20
tp2646
F5.0
s((g2
g3
g3
I7
tp2647
g10
tp2648
F10.0
s((g2
g1
g2
I10
tp2649
g20
tp2650
F-5.0
s((g3
g2
g3
I4
tp2651
g26
tp2652
F5.0
s((g3
g3
g2
I4
tp2653
g26
tp2654
F10.0
s((g2
g1
g1
I8
tp2655
g23
tp2656
F1.25
s((g3
g3
g2
I5
tp2657
g26
tp2658
F10.0
s((g2
g1
g1
I6
tp2659
g23
tp2660
F1.25
s((g1
g1
g1
I2
tp2661
g23
tp2662
F0.0
s((g1
g2
g1
I4
tp2663
g23
tp2664
F-5.0
s((g1
g2
g1
I10
tp2665
g10
tp2666
F-5.0
s((g2
g3
g2
I8
tp2667
g20
tp2668
F0.0
s((g2
g2
g2
I2
tp2669
g20
tp2670
F-5.0
s((g3
g3
g2
I7
tp2671
g10
tp2672
F10.0
s((g1
g2
g1
I6
tp2673
g20
tp2674
F-5.0
s((g2
g3
g1
I3
tp2675
g10
tp2676
F-5.0
s((g2
g1
g1
I6
tp2677
g26
tp2678
F3.75
s((g1
g3
g3
I5
tp2679
g10
tp2680
F-5.0
s((g2
g1
g1
I4
tp2681
g23
tp2682
F1.25
s((g3
g1
g2
I11
tp2683
g10
tp2684
F5.0
s((g1
g3
g1
I9
tp2685
g20
tp2686
F5.0
s((g2
g3
g2
I3
tp2687
g5
tp2688
F-5.0
s((g1
g2
g2
I2
tp2689
g5
tp2690
F-5.0
s((g3
g3
g1
I11
tp2691
g23
tp2692
F-1.6666666666666674
s((g3
g1
g3
I8
tp2693
g26
tp2694
F-3.0000000000000004
s((g3
g1
g2
I5
tp2695
g20
tp2696
F5.0
s((g1
g1
g2
I2
tp2697
g26
tp2698
F1.6666666666666674
s((g2
g1
g2
I9
tp2699
g10
tp2700
F-5.0
s((g1
g3
g3
I6
tp2701
g5
tp2702
F5.0
s((g2
g3
g3
I4
tp2703
g10
tp2704
F10.0
s((g1
g1
g2
I9
tp2705
g10
tp2706
F1.6666666666666674
s((g1
g3
g3
I7
tp2707
g5
tp2708
F5.0
s((g1
g3
g3
I3
tp2709
g23
tp2710
F-5.0
s((g14
g14
g111
I7
tp2711
g17
tp2712
I-10
s((g1
g2
g3
I3
tp2713
g26
tp2714
F5.0
s((g14
g14
g111
I9
tp2715
g65
tp2716
I-10
s((g2
g2
g3
I1
tp2717
g26
tp2718
F-5.0
s((g2
g3
g3
I6
tp2719
g20
tp2720
F0.0
s((g1
g3
g3
I4
tp2721
g20
tp2722
F5.0
s((g2
g2
g1
I7
tp2723
g10
tp2724
F-5.0
s((g1
g2
g2
I8
tp2725
g26
tp2726
F-5.0
s((g1
g2
g3
I10
tp2727
g20
tp2728
F-5.0
s((g2
g2
g3
I3
tp2729
g10
tp2730
F-5.0
s((g2
g1
g1
I3
tp2731
g26
tp2732
F3.75
s((g2
g3
g2
I2
tp2733
g26
tp2734
F0.0
s((g1
g3
g1
I6
tp2735
g23
tp2736
F5.0
s((g3
g2
g3
I9
tp2737
g5
tp2738
F0.0
s((g1
g1
g3
I6
tp2739
g26
tp2740
F5.0
s((g1
g3
g1
I6
tp2741
g5
tp2742
F1.6666666666666674
s((g2
g1
g3
I6
tp2743
g20
tp2744
F0.0
s((g1
g3
g2
I4
tp2745
g26
tp2746
F5.0
s((g1
g1
g2
I5
tp2747
g20
tp2748
F5.0
s((g1
g3
g2
I5
tp2749
g26
tp2750
F5.0
s((g2
g1
g2
I1
tp2751
g20
tp2752
F-5.0
s((g1
g3
g3
I1
tp2753
g26
tp2754
F-5.0
s((g2
g1
g1
I1
tp2755
g26
tp2756
F3.75
s((g3
g1
g1
I6
tp2757
g10
tp2758
F-5.0
s((g1
g1
g2
I8
tp2759
g20
tp2760
F5.0
s((g1
g1
g1
I11
tp2761
g5
tp2762
F0.0
s((g1
g1
g1
I6
tp2763
g26
tp2764
F5.0
s((g2
g1
g2
I8
tp2765
g5
tp2766
F-5.0
s((g14
g14
g15
I10
tp2767
g17
tp2768
I-10
s((g2
g2
g3
I10
tp2769
g26
tp2770
F-5.0
s((g2
g1
g3
I4
tp2771
g20
tp2772
F0.0
s((g3
g3
g2
I4
tp2773
g20
tp2774
F5.0
s((g3
g3
g2
I9
tp2775
g10
tp2776
F10.0
s((g3
g1
g2
I6
tp2777
g10
tp2778
F5.0
s((g1
g2
g1
I6
tp2779
g10
tp2780
F-5.0
s((g2
g2
g3
I9
tp2781
g20
tp2782
F-5.0
s((g2
g2
g1
I7
tp2783
g26
tp2784
F-5.0
s((g1
g1
g1
I6
tp2785
g23
tp2786
F0.0
s((g1
g1
g2
I7
tp2787
g23
tp2788
F-1.6666666666666674
s((g1
g2
g2
I7
tp2789
g20
tp2790
F-5.0
s((g3
g3
g3
I4
tp2791
g20
tp2792
F-2.5
s((g1
g2
g1
I11
tp2793
g5
tp2794
F-5.0
s((g3
g2
g2
I3
tp2795
g10
tp2796
F-5.0
s((g2
g3
g3
I11
tp2797
g5
tp2798
F-5.0
s((g14
g14
g105
I7
tp2799
g65
tp2800
I-10
s((g1
g3
g3
I4
tp2801
g26
tp2802
F-5.0
s((g3
g1
g2
I7
tp2803
g20
tp2804
F5.0
s((g14
g14
g111
I4
tp2805
g65
tp2806
I-10
s((g3
g1
g1
I4
tp2807
g23
tp2808
F0.0
s((g1
g2
g1
I5
tp2809
g20
tp2810
F-5.0
s((g3
g3
g3
I10
tp2811
g26
tp2812
F5.0
s((g3
g2
g1
I5
tp2813
g20
tp2814
F-5.0
s((g3
g1
g3
I10
tp2815
g26
tp2816
F-3.0000000000000004
s((g3
g1
g3
I6
tp2817
g20
tp2818
F-1.0000000000000009
s((g1
g2
g1
I8
tp2819
g20
tp2820
F-5.0
s((g3
g1
g1
I10
tp2821
g23
tp2822
F0.0
s((g1
g2
g3
I11
tp2823
g20
tp2824
F-5.0
s((g2
g3
g3
I5
tp2825
g26
tp2826
F5.0
s((g2
g1
g3
I7
tp2827
g23
tp2828
F0.0
s((g2
g2
g3
I1
tp2829
g10
tp2830
F-5.0
s((g2
g3
g3
I11
tp2831
g26
tp2832
F5.0
s((g14
g14
g111
I2
tp2833
g107
tp2834
I-10
s((g1
g1
g3
I5
tp2835
g5
tp2836
F0.0
s((g1
g1
g2
I5
tp2837
g26
tp2838
F1.6666666666666674
s((g1
g3
g2
I6
tp2839
g5
tp2840
F0.0
s((g2
g3
g3
I3
tp2841
g26
tp2842
F5.0
s((g2
g2
g1
I4
tp2843
g5
tp2844
F-5.0
s((g1
g3
g3
I1
tp2845
g20
tp2846
F5.0
s((g1
g1
g2
I7
tp2847
g20
tp2848
F5.0
s((g1
g2
g3
I9
tp2849
g20
tp2850
F-5.0
s((g1
g2
g3
I7
tp2851
g26
tp2852
F5.0
s((g3
g2
g3
I8
tp2853
g10
tp2854
F10.0
s((g3
g1
g3
I2
tp2855
g5
tp2856
F3.0000000000000004
s((g3
g2
g3
I6
tp2857
g10
tp2858
F10.0
s((g1
g1
g3
I10
tp2859
g23
tp2860
F0.0
s((g3
g1
g1
I3
tp2861
g20
tp2862
F-5.0
s((g3
g1
g1
I6
tp2863
g20
tp2864
F-5.0
s((g1
g2
g3
I5
tp2865
g5
tp2866
F-5.0
s((g2
g1
g2
I5
tp2867
g26
tp2868
F15.0
s((g3
g1
g1
I1
tp2869
g23
tp2870
F0.0
s((g1
g3
g1
I6
tp2871
g10
tp2872
F5.0
s((g3
g3
g2
I4
tp2873
g10
tp2874
F10.0
s((g2
g1
g3
I10
tp2875
g20
tp2876
F0.0
s((g2
g2
g3
I9
tp2877
g10
tp2878
F-5.0
s((g3
g2
g3
I1
tp2879
g5
tp2880
F0.0
s((g1
g1
g2
I4
tp2881
g26
tp2882
F1.6666666666666674
s((g2
g1
g2
I9
tp2883
g26
tp2884
F15.0
s((g14
g14
g111
I11
tp2885
g107
tp2886
I-10
s((g2
g3
g3
I1
tp2887
g26
tp2888
F5.0
s((g14
g14
g105
I6
tp2889
g65
tp2890
I-10
s((g1
g1
g3
I7
tp2891
g20
tp2892
F5.0
s((g3
g1
g3
I1
tp2893
g5
tp2894
F3.0000000000000004
s((g3
g1
g3
I8
tp2895
g5
tp2896
F3.0000000000000004
s((g3
g2
g3
I2
tp2897
g5
tp2898
F0.0
s((g3
g3
g3
I9
tp2899
g23
tp2900
F0.0
s((g1
g3
g2
I11
tp2901
g20
tp2902
F-5.0
s((g1
g1
g3
I11
tp2903
g23
tp2904
F0.0
s((g1
g1
g2
I1
tp2905
g26
tp2906
F1.6666666666666674
s((g3
g2
g2
I11
tp2907
g10
tp2908
F-5.0
s((g14
g14
g15
I10
tp2909
g65
tp2910
I-10
s((g2
g1
g3
I11
tp2911
g10
tp2912
F8.333333333333336
s((g2
g1
g1
I7
tp2913
g5
tp2914
F-1.25
s((g2
g1
g1
I5
tp2915
g5
tp2916
F-1.25
s((g2
g1
g1
I6
tp2917
g5
tp2918
F-1.25
s((g2
g3
g2
I11
tp2919
g23
tp2920
F0.0
s((g1
g1
g2
I1
tp2921
g10
tp2922
F1.6666666666666674
s((g3
g2
g2
I8
tp2923
g5
tp2924
F-5.0
s((g3
g1
g2
I9
tp2925
g20
tp2926
F5.0
s((g1
g1
g3
I6
tp2927
g10
tp2928
F0.0
s((g3
g1
g3
I11
tp2929
g10
tp2930
F0.0
s((g3
g2
g3
I7
tp2931
g5
tp2932
F0.0
s((g2
g3
g2
I10
tp2933
g10
tp2934
F-5.0
s((g3
g2
g3
I4
tp2935
g5
tp2936
F0.0
s((g2
g3
g3
I10
tp2937
g20
tp2938
F0.0
s((g14
g14
g105
I1
tp2939
g65
tp2940
I-10
s((g14
g14
g15
I1
tp2941
g65
tp2942
I-10
s((g3
g3
g2
I7
tp2943
g5
tp2944
F0.0
s((g1
g3
g3
I4
tp2945
g23
tp2946
F-5.0
s((g3
g3
g1
I11
tp2947
g5
tp2948
F1.6666666666666674
s((g1
g3
g1
I8
tp2949
g20
tp2950
F5.0
s((g2
g3
g2
I1
tp2951
g5
tp2952
F-5.0
s((g1
g2
g3
I3
tp2953
g20
tp2954
F-5.0
s((g2
g2
g2
I6
tp2955
g23
tp2956
F-5.0
s((g1
g3
g3
I3
tp2957
g5
tp2958
F5.0
s((g14
g14
g105
I5
tp2959
g107
tp2960
I-10
s((g1
g2
g3
I9
tp2961
g26
tp2962
F5.0
s((g2
g1
g3
I7
tp2963
g5
tp2964
F5.0
s((g2
g1
g2
I11
tp2965
g26
tp2966
F15.0
s((g2
g3
g3
I2
tp2967
g10
tp2968
F10.0
s((g3
g2
g2
I5
tp2969
g26
tp2970
F-5.0
s((g1
g1
g1
I4
tp2971
g23
tp2972
F0.0
s((g1
g3
g2
I11
tp2973
g23
tp2974
F5.0
s((g2
g2
g3
I4
tp2975
g26
tp2976
F-5.0
s((g14
g14
g15
I2
tp2977
g107
tp2978
I-10
s((g1
g3
g2
I3
tp2979
g10
tp2980
F10.0
s((g14
g14
g15
I3
tp2981
g107
tp2982
I-10
s((g2
g3
g2
I6
tp2983
g26
tp2984
F0.0
s((g2
g2
g3
I1
tp2985
g23
tp2986
F-5.0
s((g2
g2
g3
I6
tp2987
g10
tp2988
F-5.0
s((g3
g1
g1
I7
tp2989
g5
tp2990
F-5.0
s((g1
g3
g2
I10
tp2991
g5
tp2992
F0.0
s((g2
g3
g1
I9
tp2993
g20
tp2994
F-5.0
s((g1
g1
g2
I4
tp2995
g20
tp2996
F5.0
s((g2
g1
g3
I2
tp2997
g23
tp2998
F0.0
s((g2
g1
g2
I6
tp2999
g5
tp3000
F-5.0
s((g2
g1
g2
I5
tp3001
g5
tp3002
F-5.0
s((g3
g3
g3
I10
tp3003
g10
tp3004
F7.5
s((g2
g2
g1
I3
tp3005
g20
tp3006
F-5.0
s((g1
g1
g3
I4
tp3007
g23
tp3008
F0.0
s((g3
g2
g2
I1
tp3009
g5
tp3010
F-5.0
s((g1
g3
g1
I6
tp3011
g26
tp3012
F1.6666666666666674
s((g14
g14
g15
I8
tp3013
g113
tp3014
I-10
s((g14
g14
g111
I11
tp3015
g65
tp3016
I-10
s((g1
g3
g1
I11
tp3017
g10
tp3018
F5.0
s((g2
g1
g1
I10
tp3019
g26
tp3020
F3.75
s((g2
g2
g1
I7
tp3021
g23
tp3022
F-5.0
s((g1
g1
g1
I1
tp3023
g26
tp3024
F5.0
s((g1
g3
g1
I10
tp3025
g10
tp3026
F5.0
s((g3
g1
g3
I11
tp3027
g23
tp3028
F1.0000000000000009
s((g1
g3
g2
I8
tp3029
g20
tp3030
F-5.0
s((g3
g2
g2
I10
tp3031
g23
tp3032
F-5.0
s((g3
g1
g2
I3
tp3033
g26
tp3034
F-5.0
s((g3
g2
g2
I9
tp3035
g5
tp3036
F-5.0
s((g1
g2
g1
I2
tp3037
g10
tp3038
F-5.0
s((g2
g3
g3
I4
tp3039
g23
tp3040
F0.0
s((g1
g3
g1
I5
tp3041
g26
tp3042
F1.6666666666666674
s((g2
g1
g1
I8
tp3043
g20
tp3044
F3.75
s((g2
g3
g2
I1
tp3045
g20
tp3046
F0.0
s((g2
g2
g2
I8
tp3047
g5
tp3048
F-5.0
s((g1
g1
g1
I2
tp3049
g20
tp3050
F5.0
s((g1
g3
g1
I5
tp3051
g23
tp3052
F5.0
s((g3
g1
g3
I3
tp3053
g26
tp3054
F-3.0000000000000004
s((g1
g2
g3
I4
tp3055
g23
tp3056
F5.0
s((g1
g1
g3
I3
tp3057
g5
tp3058
F0.0
s((g1
g1
g1
I4
tp3059
g26
tp3060
F5.0
s((g2
g2
g3
I5
tp3061
g26
tp3062
F-5.0
s((g3
g2
g3
I11
tp3063
g10
tp3064
F10.0
s((g2
g3
g1
I1
tp3065
g5
tp3066
F0.0
s((g2
g3
g1
I2
tp3067
g5
tp3068
F0.0
s((g2
g2
g1
I11
tp3069
g10
tp3070
F-5.0
s((g2
g3
g2
I8
tp3071
g26
tp3072
F0.0
s((g2
g2
g1
I10
tp3073
g26
tp3074
F-5.0
s((g14
g14
g111
I4
tp3075
g107
tp3076
I-10
s((g14
g14
g15
I9
tp3077
g17
tp3078
I-10
s((g3
g1
g2
I3
tp3079
g10
tp3080
F5.0
s((g2
g2
g3
I6
tp3081
g20
tp3082
F-5.0
s((g1
g1
g2
I10
tp3083
g26
tp3084
F1.6666666666666674
s((g3
g1
g2
I4
tp3085
g20
tp3086
F5.0
s((g1
g1
g3
I9
tp3087
g5
tp3088
F0.0
s((g1
g1
g2
I3
tp3089
g5
tp3090
F5.0
s((g14
g14
g111
I6
tp3091
g107
tp3092
I-10
s((g3
g2
g1
I9
tp3093
g10
tp3094
F-5.0
s((g3
g1
g3
I9
tp3095
g5
tp3096
F3.0000000000000004
s((g3
g2
g2
I6
tp3097
g10
tp3098
F-5.0
s((g1
g2
g3
I8
tp3099
g20
tp3100
F-5.0
s((g1
g3
g3
I8
tp3101
g5
tp3102
F5.0
s((g1
g3
g3
I11
tp3103
g5
tp3104
F5.0
s((g2
g2
g2
I11
tp3105
g26
tp3106
F-5.0
s((g1
g1
g2
I6
tp3107
g20
tp3108
F5.0
s((g14
g14
g15
I4
tp3109
g107
tp3110
I-10
s((g3
g3
g2
I6
tp3111
g23
tp3112
F5.0
s((g3
g2
g3
I10
tp3113
g20
tp3114
F5.0
s((g1
g3
g2
I8
tp3115
g10
tp3116
F10.0
s((g2
g2
g2
I8
tp3117
g26
tp3118
F-5.0
s((g14
g14
g15
I7
tp3119
g107
tp3120
I-10
s((g14
g14
g15
I8
tp3121
g107
tp3122
I-10
s((g3
g3
g2
I6
tp3123
g10
tp3124
F10.0
s((g3
g2
g1
I9
tp3125
g26
tp3126
F-5.0
s((g1
g2
g2
I10
tp3127
g10
tp3128
F-5.0
s((g3
g1
g2
I3
tp3129
g23
tp3130
F-5.0
s((g1
g3
g2
I1
tp3131
g23
tp3132
F5.0
s((g1
g1
g1
I7
tp3133
g10
tp3134
F5.0
s((g2
g3
g1
I1
tp3135
g23
tp3136
F-5.0
s((g2
g2
g1
I5
tp3137
g10
tp3138
F-5.0
s((g14
g14
g111
I11
tp3139
g17
tp3140
I-10
s((g3
g3
g3
I3
tp3141
g23
tp3142
F0.0
s((g2
g1
g1
I8
tp3143
g10
tp3144
F6.25
s((g1
g3
g1
I11
tp3145
g23
tp3146
F5.0
s((g2
g1
g3
I4
tp3147
g23
tp3148
F0.0
s((g1
g3
g1
I9
tp3149
g5
tp3150
F1.6666666666666674
s((g1
g3
g2
I3
tp3151
g5
tp3152
F0.0
s((g3
g3
g3
I2
tp3153
g10
tp3154
F7.5
s((g1
g3
g1
I8
tp3155
g5
tp3156
F1.6666666666666674
s((g3
g3
g3
I9
tp3157
g26
tp3158
F5.0
s((g2
g1
g2
I11
tp3159
g10
tp3160
F-5.0
s((g2
g3
g3
I10
tp3161
g23
tp3162
F0.0
s((g1
g1
g1
I6
tp3163
g20
tp3164
F5.0
s((g2
g1
g1
I1
tp3165
g20
tp3166
F3.75
s((g3
g2
g3
I3
tp3167
g10
tp3168
F10.0
s((g3
g2
g3
I4
tp3169
g10
tp3170
F10.0
s((g1
g3
g1
I4
tp3171
g20
tp3172
F5.0
s((g1
g1
g1
I5
tp3173
g5
tp3174
F0.0
s((g14
g14
g15
I6
tp3175
g107
tp3176
I-10
s((g3
g3
g1
I8
tp3177
g23
tp3178
F-1.6666666666666674
s((g2
g1
g1
I11
tp3179
g20
tp3180
F3.75
s((g3
g1
g3
I5
tp3181
g20
tp3182
F-1.0000000000000009
s((g2
g2
g3
I5
tp3183
g10
tp3184
F-5.0
s((g1
g2
g2
I3
tp3185
g10
tp3186
F-5.0
s((g3
g2
g1
I4
tp3187
g10
tp3188
F-5.0
s((g2
g1
g1
I6
tp3189
g20
tp3190
F3.75
s((g2
g2
g3
I4
tp3191
g5
tp3192
F5.0
s((g14
g14
g15
I8
tp3193
g65
tp3194
I-10
s((g1
g3
g1
I3
tp3195
g20
tp3196
F5.0
s((g3
g2
g1
I1
tp3197
g26
tp3198
F-5.0
s((g3
g2
g3
I9
tp3199
g26
tp3200
F5.0
s((g1
g3
g1
I1
tp3201
g23
tp3202
F5.0
s((g1
g2
g2
I4
tp3203
g20
tp3204
F-5.0
s((g3
g1
g3
I3
tp3205
g23
tp3206
F1.0000000000000009
s((g1
g2
g3
I2
tp3207
g20
tp3208
F-5.0
s((g1
g2
g3
I8
tp3209
g10
tp3210
F15.0
s((g3
g3
g3
I7
tp3211
g20
tp3212
F-2.5
s((g2
g1
g3
I9
tp3213
g26
tp3214
F1.6666666666666674
s((g2
g3
g2
I3
tp3215
g26
tp3216
F0.0
s((g1
g2
g2
I10
tp3217
g5
tp3218
F-5.0
s((g3
g3
g3
I6
tp3219
g10
tp3220
F7.5
s((g3
g3
g3
I8
tp3221
g20
tp3222
F-2.5
s((g1
g1
g3
I9
tp3223
g23
tp3224
F0.0
s((g2
g3
g3
I9
tp3225
g10
tp3226
F10.0
s((g1
g1
g2
I6
tp3227
g10
tp3228
F1.6666666666666674
s((g2
g1
g3
I11
tp3229
g5
tp3230
F5.0
s((g1
g3
g1
I2
tp3231
g10
tp3232
F5.0
s((g2
g1
g3
I4
tp3233
g5
tp3234
F5.0
s((g2
g3
g3
I11
tp3235
g20
tp3236
F0.0
s((g1
g2
g1
I8
tp3237
g26
tp3238
F-5.0
s((g14
g14
g111
I8
tp3239
g65
tp3240
I-10
s((g2
g2
g2
I7
tp3241
g10
tp3242
F-5.0
s((g2
g3
g1
I11
tp3243
g20
tp3244
F-5.0
s((g3
g1
g2
I8
tp3245
g23
tp3246
F-5.0
s((g1
g3
g1
I3
tp3247
g10
tp3248
F5.0
s((g1
g1
g1
I5
tp3249
g10
tp3250
F5.0
s.