(dp0
(S'neg'
p1
S'pos'
p2
S'pos'
p3
Vend
p4
tp5
I6
s(S'pos'
p6
S'neg'
p7
S'neg'
p8
Vinit
p9
tp10
I4
s(S'neutral'
p11
S'neutral'
p12
S'pos'
p13
Vmore
p14
tp15
I1
s(S'neg'
p16
S'neg'
p17
S'pos'
p18
Vswitch
p19
tp20
I3
s(S'neg'
p21
S'neg'
p22
S'neutral'
p23
Vmore
p24
tp25
I5
s(S'pos'
p26
S'neg'
p27
S'pos'
p28
Vend
p29
tp30
I9
s(S'neutral'
p31
S'neg'
p32
S'pos'
p33
Vinit
p34
tp35
I6
s(S'pos'
p36
S'neg'
p37
S'neg'
p38
Vend
p39
tp40
I7
s(S'neg'
p41
S'neutral'
p42
S'pos'
p43
Vswitch
p44
tp45
I2
s(S'pos'
p46
S'neg'
p47
S'pos'
p48
Vcontinue
p49
tp50
I6
s(S'neg'
p51
S'neg'
p52
S'neg'
p53
Vmore
p54
tp55
I5
s(S'pos'
p56
S'neg'
p57
S'pos'
p58
Vjoke
p59
tp60
I12
s(S'neg'
p61
S'neutral'
p62
S'pos'
p63
Vinit
p64
tp65
I1
s(S'neutral'
p66
S'neutral'
p67
S'neg'
p68
Vend
p69
tp70
I1
s(S'pos'
p71
S'pos'
p72
S'neg'
p73
Vinit
p74
tp75
I7
s(S'pos'
p76
S'pos'
p77
S'neutral'
p78
Vend
p79
tp80
I5
s(S'neg'
p81
S'pos'
p82
S'neutral'
p83
Vswitch
p84
tp85
I4
s(S'neutral'
p86
S'neg'
p87
S'neutral'
p88
Vend
p89
tp90
I3
s(S'pos'
p91
S'pos'
p92
S'pos'
p93
Vswitch
p94
tp95
I16
s(S'neutral'
p96
S'pos'
p97
S'pos'
p98
Vswitch
p99
tp100
I3
s(S'neg'
p101
S'neg'
p102
S'pos'
p103
Vinit
p104
tp105
I4
s(S'neg'
p106
S'neg'
p107
S'neutral'
p108
Vjoke
p109
tp110
I6
s(S'neutral'
p111
S'pos'
p112
S'neg'
p113
Vend
p114
tp115
I3
s(S'his field is require'
p116
S'his field is require'
p117
S'neutral'
p118
Vswitch
p119
tp120
I1
s(S'neutral'
p121
S'neg'
p122
S'neg'
p123
Vcontinue
p124
tp125
I1
s(S'neutral'
p126
S'neg'
p127
S'neutral'
p128
Vswitch
p129
tp130
I2
s(S'neutral'
p131
S'pos'
p132
S'neutral'
p133
Vmore
p134
tp135
I2
s(S'pos'
p136
S'pos'
p137
S'pos'
p138
Vcontinue
p139
tp140
I9
s(S'pos'
p141
S'neutral'
p142
S'pos'
p143
Vcontinue
p144
tp145
I1
s(S'neutral'
p146
S'neutral'
p147
S'pos'
p148
Vinit
p149
tp150
I1
s(S'neg'
p151
S'neutral'
p152
S'pos'
p153
Vjoke
p154
tp155
I1
s(S'neutral'
p156
S'neutral'
p157
S'neg'
p158
Vswitch
p159
tp160
I1
s(S'neg'
p161
S'pos'
p162
S'neutral'
p163
Vmore
p164
tp165
I5
s(S'neutral'
p166
S'neg'
p167
S'pos'
p168
Vmore
p169
tp170
I7
s(S'neutral'
p171
S'neg'
p172
S'neg'
p173
Vswitch
p174
tp175
I15
s(S'pos'
p176
S'neutral'
p177
S'pos'
p178
Vjoke
p179
tp180
I3
s(S'his field is require'
p181
S'his field is require'
p182
S'neutral'
p183
Vcontinue
p184
tp185
I2
s(S'neutral'
p186
S'pos'
p187
S'pos'
p188
Vjoke
p189
tp190
I2
s(S'neg'
p191
S'neg'
p192
S'pos'
p193
Vmore
p194
tp195
I3
s(S'pos'
p196
S'neg'
p197
S'neutral'
p198
Vmore
p199
tp200
I6
s(S'neg'
p201
S'pos'
p202
S'neg'
p203
Vjoke
p204
tp205
I5
s(S'neutral'
p206
S'pos'
p207
S'neg'
p208
Vswitch
p209
tp210
I2
s(S'pos'
p211
S'pos'
p212
S'pos'
p213
Vend
p214
tp215
I16
s(S'neg'
p216
S'pos'
p217
S'pos'
p218
Vinit
p219
tp220
I7
s(S'pos'
p221
S'pos'
p222
S'neg'
p223
Vcontinue
p224
tp225
I6
s(S'neutral'
p226
S'neutral'
p227
S'neg'
p228
Vcontinue
p229
tp230
I1
s(S'pos'
p231
S'pos'
p232
S'neutral'
p233
Vswitch
p234
tp235
I4
s(S'neutral'
p236
S'pos'
p237
S'neutral'
p238
Vend
p239
tp240
I3
s(S'neg'
p241
S'pos'
p242
S'neg'
p243
Vend
p244
tp245
I5
s(S'neg'
p246
S'pos'
p247
S'neg'
p248
Vinit
p249
tp250
I6
s(S'pos'
p251
S'neg'
p252
S'neutral'
p253
Vend
p254
tp255
I3
s(S'neg'
p256
S'neg'
p257
S'neutral'
p258
Vswitch
p259
tp260
I4
s(S'neutral'
p261
S'neg'
p262
S'neg'
p263
Vjoke
p264
tp265
I12
s(S'his field is require'
p266
S'his field is require'
p267
S'neutral'
p268
Vinit
p269
tp270
I2
s(S'pos'
p271
S'neutral'
p272
S'pos'
p273
Vinit
p274
tp275
I4
s(S'pos'
p276
S'neg'
p277
S'neutral'
p278
Vinit
p279
tp280
I4
s(S'pos'
p281
S'neg'
p282
S'neg'
p283
Vcontinue
p284
tp285
I4
s(S'neg'
p286
S'pos'
p287
S'pos'
p288
Vjoke
p289
tp290
I6
s(S'pos'
p291
S'neg'
p292
S'neutral'
p293
Vjoke
p294
tp295
I3
s(S'neutral'
p296
S'pos'
p297
S'neutral'
p298
Vinit
p299
tp300
I3
s(S'neutral'
p301
S'neg'
p302
S'neg'
p303
Vmore
p304
tp305
I20
s(S'neg'
p306
S'neg'
p307
S'neg'
p308
Vjoke
p309
tp310
I3
s(S'neg'
p311
S'pos'
p312
S'pos'
p313
Vcontinue
p314
tp315
I2
s(S'neutral'
p316
S'neg'
p317
S'pos'
p318
Vjoke
p319
tp320
I8
s(S'neg'
p321
S'neg'
p322
S'neutral'
p323
Vinit
p324
tp325
I6
s(S'neg'
p326
S'pos'
p327
S'neutral'
p328
Vcontinue
p329
tp330
I2
s(S'neutral'
p331
S'neg'
p332
S'pos'
p333
Vend
p334
tp335
I5
s(S'neg'
p336
S'pos'
p337
S'neg'
p338
Vmore
p339
tp340
I6
s(S'neg'
p341
S'neg'
p342
S'pos'
p343
Vjoke
p344
tp345
I3
s(S'neg'
p346
S'neg'
p347
S'neg'
p348
Vinit
p349
tp350
I5
s(S'neutral'
p351
S'neutral'
p352
S'neg'
p353
Vmore
p354
tp355
I1
s(S'pos'
p356
S'neg'
p357
S'neutral'
p358
Vswitch
p359
tp360
I3
s(S'neg'
p361
S'neg'
p362
S'neg'
p363
Vcontinue
p364
tp365
I1
s(S'neg'
p366
S'neg'
p367
S'pos'
p368
Vcontinue
p369
tp370
I1
s(S'neutral'
p371
S'pos'
p372
S'pos'
p373
Vmore
p374
tp375
I5
s(S'pos'
p376
S'pos'
p377
S'pos'
p378
Vmore
p379
tp380
I25
s(S'neg'
p381
S'neutral'
p382
S'pos'
p383
Vend
p384
tp385
I2
s(S'neg'
p386
S'neg'
p387
S'pos'
p388
Vend
p389
tp390
I4
s(S'neutral'
p391
S'neg'
p392
S'neg'
p393
Vinit
p394
tp395
I18
s(S'pos'
p396
S'neg'
p397
S'pos'
p398
Vmore
p399
tp400
I15
s(S'his field is require'
p401
S'his field is require'
p402
S'neutral'
p403
Vmore
p404
tp405
I1
s(S'neutral'
p406
S'neutral'
p407
S'pos'
p408
Vend
p409
tp410
I1
s(S'neutral'
p411
S'pos'
p412
S'neg'
p413
Vinit
p414
tp415
I2
s(S'neutral'
p416
S'neg'
p417
S'neutral'
p418
Vmore
p419
tp420
I1
s(S'neg'
p421
S'neg'
p422
S'neg'
p423
Vswitch
p424
tp425
I4
s(S'pos'
p426
S'neg'
p427
S'neg'
p428
Vjoke
p429
tp430
I4
s(S'neg'
p431
S'pos'
p432
S'neutral'
p433
Vend
p434
tp435
I4
s(S'neutral'
p436
S'neutral'
p437
S'pos'
p438
Vjoke
p439
tp440
I2
s(S'pos'
p441
S'pos'
p442
S'neg'
p443
Vswitch
p444
tp445
I7
s(S'pos'
p446
S'pos'
p447
S'neutral'
p448
Vinit
p449
tp450
I4
s(S'neg'
p451
S'pos'
p452
S'neutral'
p453
Vinit
p454
tp455
I2
s(S'neg'
p456
S'neg'
p457
S'neg'
p458
Vend
p459
tp460
I6
s(S'pos'
p461
S'pos'
p462
S'pos'
p463
Vinit
p464
tp465
I19
s(S'neutral'
p466
S'neg'
p467
S'neutral'
p468
Vjoke
p469
tp470
I1
s(S'neutral'
p471
S'pos'
p472
S'pos'
p473
Vinit
p474
tp475
I3
s(S'neg'
p476
S'pos'
p477
S'neg'
p478
Vswitch
p479
tp480
I6
s(S'pos'
p481
S'neutral'
p482
S'pos'
p483
Vend
p484
tp485
I4
s(S'neutral'
p486
S'pos'
p487
S'neutral'
p488
Vswitch
p489
tp490
I3
s(S'pos'
p491
S'neutral'
p492
S'pos'
p493
Vswitch
p494
tp495
I1
s(S'pos'
p496
S'pos'
p497
S'neg'
p498
Vend
p499
tp500
I8
s(S'pos'
p501
S'neutral'
p502
S'pos'
p503
Vmore
p504
tp505
I5
s(S'neutral'
p506
S'neg'
p507
S'neutral'
p508
Vinit
p509
tp510
I1
s(S'neutral'
p511
S'neutral'
p512
S'neg'
p513
Vjoke
p514
tp515
I1
s(S'pos'
p516
S'pos'
p517
S'neg'
p518
Vjoke
p519
tp520
I6
s(S'pos'
p521
S'pos'
p522
S'neutral'
p523
Vjoke
p524
tp525
I3
s(S'neutral'
p526
S'pos'
p527
S'neutral'
p528
Vjoke
p529
tp530
I2
s(S'neutral'
p531
S'neg'
p532
S'pos'
p533
Vcontinue
p534
tp535
I2
s(S'neg'
p536
S'pos'
p537
S'neg'
p538
Vcontinue
p539
tp540
I1
s(S'neutral'
p541
S'neutral'
p542
S'pos'
p543
Vswitch
p544
tp545
I1
s(S'neg'
p546
S'pos'
p547
S'neutral'
p548
Vjoke
p549
tp550
I3
s(S'pos'
p551
S'neg'
p552
S'pos'
p553
Vinit
p554
tp555
I10
s(S'pos'
p556
S'neg'
p557
S'neg'
p558
Vmore
p559
tp560
I4
s(S'neutral'
p561
S'neutral'
p562
S'neg'
p563
Vinit
p564
tp565
I1
s(S'neg'
p566
S'neutral'
p567
S'pos'
p568
Vmore
p569
tp570
I3
s(S'pos'
p571
S'neg'
p572
S'neg'
p573
Vswitch
p574
tp575
I6
s(S'neutral'
p576
S'pos'
p577
S'neg'
p578
Vmore
p579
tp580
I2
s(S'neutral'
p581
S'pos'
p582
S'neg'
p583
Vjoke
p584
tp585
I3
s(S'pos'
p586
S'pos'
p587
S'neg'
p588
Vmore
p589
tp590
I10
s(S'neg'
p591
S'neg'
p592
S'neutral'
p593
Vend
p594
tp595
I5
s(S'neg'
p596
S'pos'
p597
S'pos'
p598
Vmore
p599
tp600
I5
s(S'neutral'
p601
S'neg'
p602
S'pos'
p603
Vswitch
p604
tp605
I6
s(S'neg'
p606
S'pos'
p607
S'pos'
p608
Vswitch
p609
tp610
I3
s(S'his field is require'
p611
S'his field is require'
p612
S'neutral'
p613
Vend
p614
tp615
I1
s(S'pos'
p616
S'pos'
p617
S'pos'
p618
Vjoke
p619
tp620
I15
s(S'pos'
p621
S'pos'
p622
S'neutral'
p623
Vmore
p624
tp625
I5
s(S'neutral'
p626
S'pos'
p627
S'pos'
p628
Vend
p629
tp630
I4
s(S'pos'
p631
S'neg'
p632
S'pos'
p633
Vswitch
p634
tp635
I11
s(S'neutral'
p636
S'neg'
p637
S'neg'
p638
Vend
p639
tp640
I16
s(S'pos'
p641
S'neg'
p642
S'neutral'
p643
Vcontinue
p644
tp645
I1
s(S'his field is require'
p646
S'his field is require'
p647
S'neutral'
p648
Vjoke
p649
tp650
I1
s.(dp0
(S'neg'
p1
S'pos'
p2
S'pos'
p3
Vend
p4
tp5
I4
s(S'pos'
p6
S'neg'
p7
S'neg'
p8
Vinit
p9
tp10
I4
s(S'neutral'
p11
S'neutral'
p12
S'pos'
p13
Vmore
p14
tp15
I1
s(S'neg'
p16
S'neg'
p17
S'pos'
p18
Vswitch
p19
tp20
I2
s(S'neg'
p21
S'neg'
p22
S'neutral'
p23
Vmore
p24
tp25
I3
s(S'pos'
p26
S'neg'
p27
S'pos'
p28
Vend
p29
tp30
I8
s(S'neutral'
p31
S'neg'
p32
S'pos'
p33
Vinit
p34
tp35
I4
s(S'pos'
p36
S'neg'
p37
S'neg'
p38
Vend
p39
tp40
I4
s(S'neg'
p41
S'neutral'
p42
S'pos'
p43
Vswitch
p44
tp45
I1
s(S'pos'
p46
S'neg'
p47
S'pos'
p48
Vcontinue
p49
tp50
I3
s(S'neg'
p51
S'neg'
p52
S'neg'
p53
Vmore
p54
tp55
I3
s(S'pos'
p56
S'neg'
p57
S'pos'
p58
Vjoke
p59
tp60
I8
s(S'neg'
p61
S'neutral'
p62
S'pos'
p63
Vinit
p64
tp65
I1
s(S'neutral'
p66
S'neutral'
p67
S'neg'
p68
Vend
p69
tp70
I1
s(S'pos'
p71
S'pos'
p72
S'neg'
p73
Vinit
p74
tp75
I4
s(S'pos'
p76
S'pos'
p77
S'neutral'
p78
Vend
p79
tp80
I2
s(S'neg'
p81
S'pos'
p82
S'neutral'
p83
Vswitch
p84
tp85
I2
s(S'neutral'
p86
S'neg'
p87
S'neutral'
p88
Vend
p89
tp90
I1
s(S'pos'
p91
S'pos'
p92
S'pos'
p93
Vswitch
p94
tp95
I11
s(S'neutral'
p96
S'pos'
p97
S'pos'
p98
Vswitch
p99
tp100
I2
s(S'neg'
p101
S'neg'
p102
S'pos'
p103
Vinit
p104
tp105
I2
s(S'neg'
p106
S'neg'
p107
S'neutral'
p108
Vjoke
p109
tp110
I3
s(S'neutral'
p111
S'pos'
p112
S'neg'
p113
Vend
p114
tp115
I2
s(S'his field is require'
p116
S'his field is require'
p117
S'neutral'
p118
Vswitch
p119
tp120
I1
s(S'neutral'
p121
S'neg'
p122
S'neg'
p123
Vcontinue
p124
tp125
I1
s(S'neutral'
p126
S'neg'
p127
S'neutral'
p128
Vswitch
p129
tp130
I1
s(S'neutral'
p131
S'pos'
p132
S'neutral'
p133
Vmore
p134
tp135
I2
s(S'pos'
p136
S'pos'
p137
S'pos'
p138
Vcontinue
p139
tp140
I4
s(S'pos'
p141
S'neutral'
p142
S'pos'
p143
Vcontinue
p144
tp145
I1
s(S'neutral'
p146
S'neutral'
p147
S'pos'
p148
Vinit
p149
tp150
I1
s(S'neg'
p151
S'neutral'
p152
S'pos'
p153
Vjoke
p154
tp155
I1
s(S'neutral'
p156
S'neutral'
p157
S'neg'
p158
Vswitch
p159
tp160
I1
s(S'neg'
p161
S'pos'
p162
S'neutral'
p163
Vmore
p164
tp165
I2
s(S'neutral'
p166
S'neg'
p167
S'pos'
p168
Vmore
p169
tp170
I3
s(S'neutral'
p171
S'neg'
p172
S'neg'
p173
Vswitch
p174
tp175
I9
s(S'pos'
p176
S'neutral'
p177
S'pos'
p178
Vjoke
p179
tp180
I2
s(S'his field is require'
p181
S'his field is require'
p182
S'neutral'
p183
Vcontinue
p184
tp185
I1
s(S'neutral'
p186
S'pos'
p187
S'pos'
p188
Vjoke
p189
tp190
I2
s(S'neg'
p191
S'neg'
p192
S'pos'
p193
Vmore
p194
tp195
I2
s(S'pos'
p196
S'neg'
p197
S'neutral'
p198
Vmore
p199
tp200
I3
s(S'neg'
p201
S'pos'
p202
S'neg'
p203
Vjoke
p204
tp205
I3
s(S'neutral'
p206
S'pos'
p207
S'neg'
p208
Vswitch
p209
tp210
I2
s(S'pos'
p211
S'pos'
p212
S'pos'
p213
Vend
p214
tp215
I10
s(S'neg'
p216
S'pos'
p217
S'pos'
p218
Vinit
p219
tp220
I4
s(S'pos'
p221
S'pos'
p222
S'neg'
p223
Vcontinue
p224
tp225
I3
s(S'neutral'
p226
S'neutral'
p227
S'neg'
p228
Vcontinue
p229
tp230
I1
s(S'pos'
p231
S'pos'
p232
S'neutral'
p233
Vswitch
p234
tp235
I2
s(S'neutral'
p236
S'pos'
p237
S'neutral'
p238
Vend
p239
tp240
I2
s(S'neg'
p241
S'pos'
p242
S'neg'
p243
Vend
p244
tp245
I3
s(S'neg'
p246
S'pos'
p247
S'neg'
p248
Vinit
p249
tp250
I3
s(S'pos'
p251
S'neg'
p252
S'neutral'
p253
Vend
p254
tp255
I3
s(S'neg'
p256
S'neg'
p257
S'neutral'
p258
Vswitch
p259
tp260
I3
s(S'neutral'
p261
S'neg'
p262
S'neg'
p263
Vjoke
p264
tp265
I9
s(S'his field is require'
p266
S'his field is require'
p267
S'neutral'
p268
Vinit
p269
tp270
I1
s(S'pos'
p271
S'neutral'
p272
S'pos'
p273
Vinit
p274
tp275
I2
s(S'pos'
p276
S'neg'
p277
S'neutral'
p278
Vinit
p279
tp280
I2
s(S'pos'
p281
S'neg'
p282
S'neg'
p283
Vcontinue
p284
tp285
I3
s(S'neg'
p286
S'pos'
p287
S'pos'
p288
Vjoke
p289
tp290
I4
s(S'pos'
p291
S'neg'
p292
S'neutral'
p293
Vjoke
p294
tp295
I3
s(S'neutral'
p296
S'pos'
p297
S'neutral'
p298
Vinit
p299
tp300
I2
s(S'neutral'
p301
S'neg'
p302
S'neg'
p303
Vmore
p304
tp305
I9
s(S'neg'
p306
S'neg'
p307
S'neg'
p308
Vjoke
p309
tp310
I2
s(S'neg'
p311
S'pos'
p312
S'pos'
p313
Vcontinue
p314
tp315
I2
s(S'neutral'
p316
S'neg'
p317
S'pos'
p318
Vjoke
p319
tp320
I4
s(S'neg'
p321
S'neg'
p322
S'neutral'
p323
Vinit
p324
tp325
I3
s(S'neg'
p326
S'pos'
p327
S'neutral'
p328
Vcontinue
p329
tp330
I1
s(S'neutral'
p331
S'neg'
p332
S'pos'
p333
Vend
p334
tp335
I3
s(S'neg'
p336
S'pos'
p337
S'neg'
p338
Vmore
p339
tp340
I3
s(S'neg'
p341
S'neg'
p342
S'pos'
p343
Vjoke
p344
tp345
I2
s(S'neg'
p346
S'neg'
p347
S'neg'
p348
Vinit
p349
tp350
I3
s(S'neutral'
p351
S'neutral'
p352
S'neg'
p353
Vmore
p354
tp355
I1
s(S'pos'
p356
S'neg'
p357
S'neutral'
p358
Vswitch
p359
tp360
I3
s(S'neg'
p361
S'neg'
p362
S'neg'
p363
Vcontinue
p364
tp365
I1
s(S'neg'
p366
S'neg'
p367
S'pos'
p368
Vcontinue
p369
tp370
I1
s(S'neutral'
p371
S'pos'
p372
S'pos'
p373
Vmore
p374
tp375
I2
s(S'pos'
p376
S'pos'
p377
S'pos'
p378
Vmore
p379
tp380
I11
s(S'neg'
p381
S'neutral'
p382
S'pos'
p383
Vend
p384
tp385
I1
s(S'neg'
p386
S'neg'
p387
S'pos'
p388
Vend
p389
tp390
I2
s(S'neutral'
p391
S'neg'
p392
S'neg'
p393
Vinit
p394
tp395
I9
s(S'pos'
p396
S'neg'
p397
S'pos'
p398
Vmore
p399
tp400
I8
s(S'his field is require'
p401
S'his field is require'
p402
S'neutral'
p403
Vmore
p404
tp405
I1
s(S'neutral'
p406
S'neutral'
p407
S'pos'
p408
Vend
p409
tp410
I1
s(S'neutral'
p411
S'pos'
p412
S'neg'
p413
Vinit
p414
tp415
I2
s(S'neutral'
p416
S'neg'
p417
S'neutral'
p418
Vmore
p419
tp420
I1
s(S'neg'
p421
S'neg'
p422
S'neg'
p423
Vswitch
p424
tp425
I3
s(S'pos'
p426
S'neg'
p427
S'neg'
p428
Vjoke
p429
tp430
I4
s(S'neg'
p431
S'pos'
p432
S'neutral'
p433
Vend
p434
tp435
I2
s(S'neutral'
p436
S'neutral'
p437
S'pos'
p438
Vjoke
p439
tp440
I1
s(S'pos'
p441
S'pos'
p442
S'neg'
p443
Vswitch
p444
tp445
I5
s(S'pos'
p446
S'pos'
p447
S'neutral'
p448
Vinit
p449
tp450
I2
s(S'neg'
p451
S'pos'
p452
S'neutral'
p453
Vinit
p454
tp455
I2
s(S'neg'
p456
S'neg'
p457
S'neg'
p458
Vend
p459
tp460
I3
s(S'pos'
p461
S'pos'
p462
S'pos'
p463
Vinit
p464
tp465
I11
s(S'neutral'
p466
S'neg'
p467
S'neutral'
p468
Vjoke
p469
tp470
I1
s(S'neutral'
p471
S'pos'
p472
S'pos'
p473
Vinit
p474
tp475
I2
s(S'neg'
p476
S'pos'
p477
S'neg'
p478
Vswitch
p479
tp480
I3
s(S'pos'
p481
S'neutral'
p482
S'pos'
p483
Vend
p484
tp485
I2
s(S'neutral'
p486
S'pos'
p487
S'neutral'
p488
Vswitch
p489
tp490
I2
s(S'pos'
p491
S'neutral'
p492
S'pos'
p493
Vswitch
p494
tp495
I1
s(S'pos'
p496
S'pos'
p497
S'neg'
p498
Vend
p499
tp500
I5
s(S'pos'
p501
S'neutral'
p502
S'pos'
p503
Vmore
p504
tp505
I2
s(S'neutral'
p506
S'neg'
p507
S'neutral'
p508
Vinit
p509
tp510
I1
s(S'neutral'
p511
S'neutral'
p512
S'neg'
p513
Vjoke
p514
tp515
I1
s(S'pos'
p516
S'pos'
p517
S'neg'
p518
Vjoke
p519
tp520
I4
s(S'pos'
p521
S'pos'
p522
S'neutral'
p523
Vjoke
p524
tp525
I2
s(S'neutral'
p526
S'pos'
p527
S'neutral'
p528
Vjoke
p529
tp530
I2
s(S'neutral'
p531
S'neg'
p532
S'pos'
p533
Vcontinue
p534
tp535
I2
s(S'neg'
p536
S'pos'
p537
S'neg'
p538
Vcontinue
p539
tp540
I1
s(S'neutral'
p541
S'neutral'
p542
S'pos'
p543
Vswitch
p544
tp545
I1
s(S'neg'
p546
S'pos'
p547
S'neutral'
p548
Vjoke
p549
tp550
I2
s(S'pos'
p551
S'neg'
p552
S'pos'
p553
Vinit
p554
tp555
I8
s(S'pos'
p556
S'neg'
p557
S'neg'
p558
Vmore
p559
tp560
I2
s(S'neutral'
p561
S'neutral'
p562
S'neg'
p563
Vinit
p564
tp565
I1
s(S'neg'
p566
S'neutral'
p567
S'pos'
p568
Vmore
p569
tp570
I1
s(S'pos'
p571
S'neg'
p572
S'neg'
p573
Vswitch
p574
tp575
I4
s(S'neutral'
p576
S'pos'
p577
S'neg'
p578
Vmore
p579
tp580
I2
s(S'neutral'
p581
S'pos'
p582
S'neg'
p583
Vjoke
p584
tp585
I2
s(S'pos'
p586
S'pos'
p587
S'neg'
p588
Vmore
p589
tp590
I5
s(S'neg'
p591
S'neg'
p592
S'neutral'
p593
Vend
p594
tp595
I3
s(S'neg'
p596
S'pos'
p597
S'pos'
p598
Vmore
p599
tp600
I4
s(S'neutral'
p601
S'neg'
p602
S'pos'
p603
Vswitch
p604
tp605
I4
s(S'neg'
p606
S'pos'
p607
S'pos'
p608
Vswitch
p609
tp610
I3
s(S'his field is require'
p611
S'his field is require'
p612
S'neutral'
p613
Vend
p614
tp615
I1
s(S'pos'
p616
S'pos'
p617
S'pos'
p618
Vjoke
p619
tp620
I11
s(S'pos'
p621
S'pos'
p622
S'neutral'
p623
Vmore
p624
tp625
I2
s(S'neutral'
p626
S'pos'
p627
S'pos'
p628
Vend
p629
tp630
I2
s(S'pos'
p631
S'neg'
p632
S'pos'
p633
Vswitch
p634
tp635
I8
s(S'neutral'
p636
S'neg'
p637
S'neg'
p638
Vend
p639
tp640
I9
s(S'pos'
p641
S'neg'
p642
S'neutral'
p643
Vcontinue
p644
tp645
I1
s(S'his field is require'
p646
S'his field is require'
p647
S'neutral'
p648
Vjoke
p649
tp650
I1
s.(dp0
(S'neg'
p1
S'pos'
p2
g2
S'end'
p3
tp4
F1.5
s(g2
g1
g1
S'init'
p5
tp6
F1.0
s(S'neutral'
p7
g7
g2
S'more'
p8
tp9
F1.0
s(g1
g1
g2
S'switch'
p10
tp11
F1.5
s(g1
g1
g7
g8
tp12
F1.6666666666666667
s(g2
g1
g2
g3
tp13
F1.125
s(g7
g1
g2
g5
tp14
F1.5
s(g2
g1
g1
g3
tp15
F1.75
s(g1
g7
g2
g10
tp16
F2.0
s(g1
g1
g1
g8
tp17
F1.6666666666666667
s(g2
g1
g2
S'joke'
p18
tp19
F1.5
s(g7
g1
g7
g8
tp20
F1.0
s(g2
g2
g1
g5
tp21
F1.75
s(g2
g2
g7
g3
tp22
F2.5
s(g1
g2
g7
g10
tp23
F2.0
s(g7
g1
g7
g3
tp24
F3.0
s(g2
g2
g2
g10
tp25
F1.4545454545454546
s(g7
g2
g2
g10
tp26
F1.5
s(g1
g1
g2
g5
tp27
F2.0
s(g1
g1
g7
g18
tp28
F2.0
s(g7
g2
g1
g3
tp29
F1.5
s(g7
g7
g1
g3
tp30
F1.0
s(g7
g1
g7
g10
tp31
F2.0
s(g7
g2
g7
g8
tp32
F1.0
s(g7
g7
g2
g5
tp33
F1.0
s(g1
g7
g2
g18
tp34
F1.0
s(g7
g7
g1
g10
tp35
F1.0
s(g7
g7
g1
g5
tp36
F1.0
s(g7
g1
g2
g8
tp37
F2.3333333333333335
s(g7
g1
g1
g10
tp38
F1.6666666666666667
s(g2
g7
g2
g18
tp39
F1.5
s(g7
g2
g2
g18
tp40
F1.0
s(g2
g7
g2
g3
tp41
F2.0
s(g2
g1
g7
g8
tp42
F2.0
s(g1
g2
g1
g18
tp43
F1.6666666666666667
s(g7
g2
g1
g10
tp44
F1.0
s(g2
g2
g2
g3
tp45
F1.6
s(g1
g2
g2
g5
tp46
F1.75
s(g7
g1
g1
g3
tp47
F1.7777777777777777
s(g2
g2
g7
g10
tp48
F2.0
s(g7
g2
g7
g3
tp49
F1.5
s(g1
g2
g1
g3
tp50
F1.6666666666666667
s(g1
g2
g1
g5
tp51
F2.0
s(g2
g1
g7
g3
tp52
F1.0
s(g1
g1
g7
g10
tp53
F1.3333333333333333
s(g7
g2
g7
g5
tp54
F1.5
s(g2
g7
g2
g5
tp55
F2.0
s(g2
g1
g7
g5
tp56
F2.0
s(g1
g2
g2
g18
tp57
F1.5
s(g2
g1
g7
g18
tp58
F1.0
s(g7
g1
g1
g18
tp59
F1.3333333333333333
s(g7
g1
g1
g8
tp60
F2.2222222222222223
s(g1
g1
g1
g18
tp61
F1.5
s(g7
g1
g2
g18
tp62
F2.0
s(g1
g1
g7
g5
tp63
F2.0
s(g7
g1
g2
g3
tp64
F1.6666666666666667
s(g1
g2
g1
g8
tp65
F2.0
s(g1
g1
g2
g18
tp66
F1.5
s(g1
g1
g1
g5
tp67
F1.6666666666666667
s(g7
g7
g1
g8
tp68
F1.0
s(g2
g1
g7
g10
tp69
F1.0
s(g1
g1
g2
g3
tp70
F2.0
s(g7
g2
g2
g8
tp71
F2.5
s(g2
g2
g2
g8
tp72
F2.272727272727273
s(g1
g7
g2
g3
tp73
F2.0
s(g2
g7
g2
g8
tp74
F2.5
s(g7
g2
g7
g18
tp75
F1.0
s(g2
g1
g2
g8
tp76
F1.875
s(g7
g7
g2
g3
tp77
F1.0
s(g7
g2
g1
g5
tp78
F1.0
s(g1
g7
g2
g5
tp79
F1.0
s(g1
g1
g1
g10
tp80
F1.3333333333333333
s(g2
g1
g1
g18
tp81
F1.0
s(g1
g2
g7
g3
tp82
F2.0
s(g7
g7
g2
g18
tp83
F2.0
s(g2
g2
g1
g10
tp84
F1.4
s(g2
g2
g7
g5
tp85
F2.0
s(g1
g2
g7
g5
tp86
F1.0
s(g1
g1
g1
g3
tp87
F2.0
s(g2
g2
g2
g5
tp88
F1.7272727272727273
s(g7
g1
g7
g18
tp89
F1.0
s(g7
g2
g2
g5
tp90
F1.5
s(g1
g2
g1
g10
tp91
F2.0
s(g1
g1
g2
g8
tp92
F1.5
s(g7
g2
g7
g10
tp93
F1.5
s(g2
g2
g1
g3
tp94
F1.6
s(g2
g7
g2
g10
tp95
F1.0
s(g1
g7
g2
g8
tp96
F3.0
s(g1
g2
g2
g8
tp97
F1.25
s(g2
g2
g1
g18
tp98
F1.5
s(g2
g2
g7
g18
tp99
F1.5
s(g7
g1
g1
g5
tp100
F2.0
s(g7
g7
g2
g10
tp101
F1.0
s(g1
g2
g7
g18
tp102
F1.5
s(g2
g1
g2
g5
tp103
F1.25
s(g2
g1
g1
g8
tp104
F2.0
s(g1
g2
g7
g8
tp105
F2.5
s(g7
g1
g7
g5
tp106
F1.0
s(g2
g1
g1
g10
tp107
F1.5
s(g7
g2
g1
g8
tp108
F1.0
s(g7
g2
g1
g18
tp109
F1.5
s(g2
g2
g1
g8
tp110
F2.0
s(g1
g1
g7
g3
tp111
F1.6666666666666667
s(g7
g7
g1
g18
tp112
F1.0
s(g7
g1
g2
g10
tp113
F1.5
s(g1
g2
g2
g10
tp114
F1.0
s(g2
g2
g2
g18
tp115
F1.3636363636363635
s(g2
g2
g7
g8
tp116
F2.5
s(g7
g2
g2
g3
tp117
F2.0
s(g2
g1
g2
g10
tp118
F1.375
s.