(dp0
(S'neg'
p1
S'pos'
p2
S'pos'
p3
Vend
p4
tp5
I2
s(S'pos'
p6
S'neg'
p7
S'neg'
p8
Vinit
p9
tp10
I2
s(S'neutral'
p11
S'neutral'
p12
S'pos'
p13
Vmore
p14
tp15
I1
s(S'neg'
p16
S'neg'
p17
S'pos'
p18
Vswitch
p19
tp20
I3
s(S'neg'
p21
S'neg'
p22
S'neutral'
p23
Vmore
p24
tp25
I5
s(S'pos'
p26
S'neg'
p27
S'pos'
p28
Vend
p29
tp30
I6
s(S'neutral'
p31
S'neg'
p32
S'pos'
p33
Vinit
p34
tp35
I6
s(S'pos'
p36
S'neg'
p37
S'neg'
p38
Vend
p39
tp40
I3
s(S'neg'
p41
S'neutral'
p42
S'pos'
p43
Vswitch
p44
tp45
I2
s(S'pos'
p46
S'neg'
p47
S'pos'
p48
Vcontinue
p49
tp50
I1
s(S'neg'
p51
S'neg'
p52
S'neg'
p53
Vmore
p54
tp55
I4
s(S'pos'
p56
S'neg'
p57
S'pos'
p58
Vjoke
p59
tp60
I9
s(S'neg'
p61
S'neutral'
p62
S'pos'
p63
Vinit
p64
tp65
I1
s(S'neutral'
p66
S'neutral'
p67
S'neg'
p68
Vend
p69
tp70
I1
s(S'pos'
p71
S'pos'
p72
S'neg'
p73
Vinit
p74
tp75
I4
s(S'pos'
p76
S'pos'
p77
S'neutral'
p78
Vend
p79
tp80
I5
s(S'neg'
p81
S'pos'
p82
S'neutral'
p83
Vswitch
p84
tp85
I4
s(S'neutral'
p86
S'neg'
p87
S'neutral'
p88
Vend
p89
tp90
I3
s(S'pos'
p91
S'pos'
p92
S'pos'
p93
Vswitch
p94
tp95
I6
s(S'neutral'
p96
S'pos'
p97
S'pos'
p98
Vswitch
p99
tp100
I3
s(S'neg'
p101
S'neg'
p102
S'pos'
p103
Vinit
p104
tp105
I4
s(S'neg'
p106
S'neg'
p107
S'neutral'
p108
Vjoke
p109
tp110
I6
s(S'neutral'
p111
S'pos'
p112
S'neg'
p113
Vend
p114
tp115
I3
s(S'neutral'
p116
S'neg'
p117
S'neg'
p118
Vcontinue
p119
tp120
I1
s(S'neutral'
p121
S'neg'
p122
S'neutral'
p123
Vswitch
p124
tp125
I2
s(S'neutral'
p126
S'pos'
p127
S'neutral'
p128
Vmore
p129
tp130
I2
s(S'pos'
p131
S'pos'
p132
S'pos'
p133
Vcontinue
p134
tp135
I1
s(S'pos'
p136
S'neutral'
p137
S'pos'
p138
Vcontinue
p139
tp140
I1
s(S'neutral'
p141
S'neutral'
p142
S'pos'
p143
Vinit
p144
tp145
I1
s(S'neg'
p146
S'neutral'
p147
S'pos'
p148
Vjoke
p149
tp150
I1
s(S'neutral'
p151
S'neutral'
p152
S'neg'
p153
Vswitch
p154
tp155
I1
s(S'neutral'
p156
S'neutral'
p157
S'neg'
p158
Vinit
p159
tp160
I1
s(S'neutral'
p161
S'neg'
p162
S'pos'
p163
Vmore
p164
tp165
I7
s(S'neutral'
p166
S'neg'
p167
S'neg'
p168
Vswitch
p169
tp170
I13
s(S'pos'
p171
S'neutral'
p172
S'pos'
p173
Vjoke
p174
tp175
I3
s(S'neutral'
p176
S'pos'
p177
S'pos'
p178
Vjoke
p179
tp180
I2
s(S'neg'
p181
S'neg'
p182
S'pos'
p183
Vmore
p184
tp185
I3
s(S'pos'
p186
S'neg'
p187
S'neutral'
p188
Vmore
p189
tp190
I6
s(S'neg'
p191
S'pos'
p192
S'neg'
p193
Vjoke
p194
tp195
I5
s(S'neutral'
p196
S'pos'
p197
S'neg'
p198
Vswitch
p199
tp200
I2
s(S'pos'
p201
S'pos'
p202
S'pos'
p203
Vend
p204
tp205
I8
s(S'neg'
p206
S'pos'
p207
S'pos'
p208
Vinit
p209
tp210
I4
s(S'pos'
p211
S'pos'
p212
S'neg'
p213
Vcontinue
p214
tp215
I3
s(S'neutral'
p216
S'neutral'
p217
S'neg'
p218
Vcontinue
p219
tp220
I1
s(S'pos'
p221
S'pos'
p222
S'neutral'
p223
Vswitch
p224
tp225
I4
s(S'neutral'
p226
S'pos'
p227
S'neutral'
p228
Vend
p229
tp230
I3
s(S'neg'
p231
S'pos'
p232
S'neg'
p233
Vend
p234
tp235
I5
s(S'neg'
p236
S'pos'
p237
S'neg'
p238
Vinit
p239
tp240
I6
s(S'pos'
p241
S'neg'
p242
S'neutral'
p243
Vend
p244
tp245
I3
s(S'neg'
p246
S'neg'
p247
S'neutral'
p248
Vswitch
p249
tp250
I4
s(S'neutral'
p251
S'neg'
p252
S'neg'
p253
Vjoke
p254
tp255
I11
s(S'pos'
p256
S'neutral'
p257
S'pos'
p258
Vinit
p259
tp260
I4
s(S'pos'
p261
S'neg'
p262
S'neutral'
p263
Vinit
p264
tp265
I4
s(S'pos'
p266
S'neg'
p267
S'neg'
p268
Vcontinue
p269
tp270
I3
s(S'neutral'
p271
S'neutral'
p272
S'neg'
p273
Vmore
p274
tp275
I1
s(S'pos'
p276
S'neg'
p277
S'neutral'
p278
Vjoke
p279
tp280
I3
s(S'neutral'
p281
S'pos'
p282
S'neutral'
p283
Vinit
p284
tp285
I3
s(S'neutral'
p286
S'neg'
p287
S'neg'
p288
Vmore
p289
tp290
I17
s(S'neg'
p291
S'neg'
p292
S'neg'
p293
Vjoke
p294
tp295
I3
s(S'neg'
p296
S'pos'
p297
S'pos'
p298
Vcontinue
p299
tp300
I1
s(S'neutral'
p301
S'neg'
p302
S'pos'
p303
Vjoke
p304
tp305
I8
s(S'neg'
p306
S'neg'
p307
S'neutral'
p308
Vinit
p309
tp310
I6
s(S'neg'
p311
S'pos'
p312
S'neutral'
p313
Vcontinue
p314
tp315
I2
s(S'neutral'
p316
S'neg'
p317
S'pos'
p318
Vend
p319
tp320
I5
s(S'neg'
p321
S'pos'
p322
S'neg'
p323
Vmore
p324
tp325
I6
s(S'neg'
p326
S'neg'
p327
S'pos'
p328
Vjoke
p329
tp330
I3
s(S'neg'
p331
S'neg'
p332
S'neg'
p333
Vinit
p334
tp335
I4
s(S'pos'
p336
S'neg'
p337
S'neutral'
p338
Vswitch
p339
tp340
I3
s(S'neg'
p341
S'neg'
p342
S'pos'
p343
Vcontinue
p344
tp345
I1
s(S'neutral'
p346
S'pos'
p347
S'pos'
p348
Vmore
p349
tp350
I5
s(S'pos'
p351
S'pos'
p352
S'pos'
p353
Vmore
p354
tp355
I9
s(S'neg'
p356
S'neutral'
p357
S'pos'
p358
Vend
p359
tp360
I2
s(S'neg'
p361
S'neg'
p362
S'pos'
p363
Vend
p364
tp365
I4
s(S'neutral'
p366
S'neg'
p367
S'neg'
p368
Vinit
p369
tp370
I15
s(S'pos'
p371
S'neg'
p372
S'pos'
p373
Vmore
p374
tp375
I6
s(S'neutral'
p376
S'neutral'
p377
S'pos'
p378
Vend
p379
tp380
I1
s(S'neutral'
p381
S'pos'
p382
S'neg'
p383
Vinit
p384
tp385
I2
s(S'neutral'
p386
S'neg'
p387
S'neutral'
p388
Vmore
p389
tp390
I1
s(S'neg'
p391
S'neg'
p392
S'neg'
p393
Vswitch
p394
tp395
I3
s(S'pos'
p396
S'neg'
p397
S'neg'
p398
Vjoke
p399
tp400
I2
s(S'neg'
p401
S'pos'
p402
S'neutral'
p403
Vend
p404
tp405
I4
s(S'neutral'
p406
S'neutral'
p407
S'pos'
p408
Vjoke
p409
tp410
I2
s(S'pos'
p411
S'neutral'
p412
S'pos'
p413
Vmore
p414
tp415
I5
s(S'pos'
p416
S'pos'
p417
S'neg'
p418
Vswitch
p419
tp420
I4
s(S'pos'
p421
S'pos'
p422
S'neutral'
p423
Vinit
p424
tp425
I4
s(S'neg'
p426
S'pos'
p427
S'neutral'
p428
Vinit
p429
tp430
I2
s(S'neg'
p431
S'neg'
p432
S'neg'
p433
Vend
p434
tp435
I4
s(S'pos'
p436
S'pos'
p437
S'pos'
p438
Vinit
p439
tp440
I5
s(S'neutral'
p441
S'neg'
p442
S'neutral'
p443
Vjoke
p444
tp445
I1
s(S'neutral'
p446
S'pos'
p447
S'pos'
p448
Vinit
p449
tp450
I3
s(S'neg'
p451
S'pos'
p452
S'neg'
p453
Vswitch
p454
tp455
I6
s(S'pos'
p456
S'neutral'
p457
S'pos'
p458
Vend
p459
tp460
I4
s(S'neutral'
p461
S'pos'
p462
S'neutral'
p463
Vswitch
p464
tp465
I3
s(S'pos'
p466
S'pos'
p467
S'neg'
p468
Vend
p469
tp470
I5
s(S'pos'
p471
S'neutral'
p472
S'pos'
p473
Vswitch
p474
tp475
I1
s(S'neutral'
p476
S'neg'
p477
S'neutral'
p478
Vinit
p479
tp480
I1
s(S'neutral'
p481
S'neutral'
p482
S'neg'
p483
Vjoke
p484
tp485
I1
s(S'pos'
p486
S'pos'
p487
S'neg'
p488
Vjoke
p489
tp490
I5
s(S'pos'
p491
S'pos'
p492
S'neutral'
p493
Vjoke
p494
tp495
I3
s(S'neutral'
p496
S'pos'
p497
S'neutral'
p498
Vjoke
p499
tp500
I2
s(S'neutral'
p501
S'neg'
p502
S'pos'
p503
Vcontinue
p504
tp505
I2
s(S'neg'
p506
S'pos'
p507
S'neg'
p508
Vcontinue
p509
tp510
I1
s(S'neutral'
p511
S'neutral'
p512
S'pos'
p513
Vswitch
p514
tp515
I1
s(S'neg'
p516
S'pos'
p517
S'neutral'
p518
Vjoke
p519
tp520
I3
s(S'pos'
p521
S'neg'
p522
S'pos'
p523
Vinit
p524
tp525
I7
s(S'pos'
p526
S'neg'
p527
S'neg'
p528
Vmore
p529
tp530
I1
s(S'neg'
p531
S'pos'
p532
S'neutral'
p533
Vmore
p534
tp535
I5
s(S'neg'
p536
S'neutral'
p537
S'pos'
p538
Vmore
p539
tp540
I3
s(S'pos'
p541
S'neg'
p542
S'neg'
p543
Vswitch
p544
tp545
I3
s(S'neutral'
p546
S'pos'
p547
S'neg'
p548
Vmore
p549
tp550
I2
s(S'neutral'
p551
S'pos'
p552
S'neg'
p553
Vjoke
p554
tp555
I3
s(S'pos'
p556
S'pos'
p557
S'neg'
p558
Vmore
p559
tp560
I5
s(S'neg'
p561
S'neg'
p562
S'neutral'
p563
Vend
p564
tp565
I5
s(S'neg'
p566
S'pos'
p567
S'pos'
p568
Vmore
p569
tp570
I2
s(S'neutral'
p571
S'neg'
p572
S'pos'
p573
Vswitch
p574
tp575
I6
s(S'neg'
p576
S'pos'
p577
S'pos'
p578
Vswitch
p579
tp580
I2
s(S'pos'
p581
S'pos'
p582
S'pos'
p583
Vjoke
p584
tp585
I7
s(S'pos'
p586
S'pos'
p587
S'neutral'
p588
Vmore
p589
tp590
I5
s(S'neg'
p591
S'pos'
p592
S'pos'
p593
Vjoke
p594
tp595
I4
s(S'neutral'
p596
S'pos'
p597
S'pos'
p598
Vend
p599
tp600
I4
s(S'pos'
p601
S'neg'
p602
S'pos'
p603
Vswitch
p604
tp605
I8
s(S'neutral'
p606
S'neg'
p607
S'neg'
p608
Vend
p609
tp610
I15
s(S'pos'
p611
S'neg'
p612
S'neutral'
p613
Vcontinue
p614
tp615
I1
s.(dp0
(S'neg'
p1
S'pos'
p2
S'pos'
p3
Vend
p4
tp5
I2
s(S'pos'
p6
S'neg'
p7
S'neg'
p8
Vinit
p9
tp10
I2
s(S'neutral'
p11
S'neutral'
p12
S'pos'
p13
Vmore
p14
tp15
I1
s(S'neg'
p16
S'neg'
p17
S'pos'
p18
Vswitch
p19
tp20
I2
s(S'neg'
p21
S'neg'
p22
S'neutral'
p23
Vmore
p24
tp25
I3
s(S'pos'
p26
S'neg'
p27
S'pos'
p28
Vend
p29
tp30
I5
s(S'neutral'
p31
S'neg'
p32
S'pos'
p33
Vinit
p34
tp35
I4
s(S'pos'
p36
S'neg'
p37
S'neg'
p38
Vend
p39
tp40
I2
s(S'neg'
p41
S'neutral'
p42
S'pos'
p43
Vswitch
p44
tp45
I1
s(S'pos'
p46
S'neg'
p47
S'pos'
p48
Vcontinue
p49
tp50
I1
s(S'neg'
p51
S'neg'
p52
S'neg'
p53
Vmore
p54
tp55
I2
s(S'pos'
p56
S'neg'
p57
S'pos'
p58
Vjoke
p59
tp60
I5
s(S'neg'
p61
S'neutral'
p62
S'pos'
p63
Vinit
p64
tp65
I1
s(S'neutral'
p66
S'neutral'
p67
S'neg'
p68
Vend
p69
tp70
I1
s(S'pos'
p71
S'pos'
p72
S'neg'
p73
Vinit
p74
tp75
I2
s(S'pos'
p76
S'pos'
p77
S'neutral'
p78
Vend
p79
tp80
I2
s(S'neg'
p81
S'pos'
p82
S'neutral'
p83
Vswitch
p84
tp85
I2
s(S'neutral'
p86
S'neg'
p87
S'neutral'
p88
Vend
p89
tp90
I1
s(S'pos'
p91
S'pos'
p92
S'pos'
p93
Vswitch
p94
tp95
I4
s(S'neutral'
p96
S'pos'
p97
S'pos'
p98
Vswitch
p99
tp100
I2
s(S'neg'
p101
S'neg'
p102
S'pos'
p103
Vinit
p104
tp105
I2
s(S'neg'
p106
S'neg'
p107
S'neutral'
p108
Vjoke
p109
tp110
I3
s(S'neutral'
p111
S'pos'
p112
S'neg'
p113
Vend
p114
tp115
I2
s(S'neutral'
p116
S'neg'
p117
S'neg'
p118
Vcontinue
p119
tp120
I1
s(S'neutral'
p121
S'neg'
p122
S'neutral'
p123
Vswitch
p124
tp125
I1
s(S'neutral'
p126
S'pos'
p127
S'neutral'
p128
Vmore
p129
tp130
I2
s(S'pos'
p131
S'pos'
p132
S'pos'
p133
Vcontinue
p134
tp135
I1
s(S'pos'
p136
S'neutral'
p137
S'pos'
p138
Vcontinue
p139
tp140
I1
s(S'neutral'
p141
S'neutral'
p142
S'pos'
p143
Vinit
p144
tp145
I1
s(S'neg'
p146
S'neutral'
p147
S'pos'
p148
Vjoke
p149
tp150
I1
s(S'neutral'
p151
S'neutral'
p152
S'neg'
p153
Vswitch
p154
tp155
I1
s(S'neutral'
p156
S'neutral'
p157
S'neg'
p158
Vinit
p159
tp160
I1
s(S'neutral'
p161
S'neg'
p162
S'pos'
p163
Vmore
p164
tp165
I3
s(S'neutral'
p166
S'neg'
p167
S'neg'
p168
Vswitch
p169
tp170
I8
s(S'pos'
p171
S'neutral'
p172
S'pos'
p173
Vjoke
p174
tp175
I2
s(S'neutral'
p176
S'pos'
p177
S'pos'
p178
Vjoke
p179
tp180
I2
s(S'neg'
p181
S'neg'
p182
S'pos'
p183
Vmore
p184
tp185
I2
s(S'pos'
p186
S'neg'
p187
S'neutral'
p188
Vmore
p189
tp190
I3
s(S'neg'
p191
S'pos'
p192
S'neg'
p193
Vjoke
p194
tp195
I3
s(S'neutral'
p196
S'pos'
p197
S'neg'
p198
Vswitch
p199
tp200
I2
s(S'pos'
p201
S'pos'
p202
S'pos'
p203
Vend
p204
tp205
I4
s(S'neg'
p206
S'pos'
p207
S'pos'
p208
Vinit
p209
tp210
I2
s(S'pos'
p211
S'pos'
p212
S'neg'
p213
Vcontinue
p214
tp215
I2
s(S'neutral'
p216
S'neutral'
p217
S'neg'
p218
Vcontinue
p219
tp220
I1
s(S'pos'
p221
S'pos'
p222
S'neutral'
p223
Vswitch
p224
tp225
I2
s(S'neutral'
p226
S'pos'
p227
S'neutral'
p228
Vend
p229
tp230
I2
s(S'neg'
p231
S'pos'
p232
S'neg'
p233
Vend
p234
tp235
I3
s(S'neg'
p236
S'pos'
p237
S'neg'
p238
Vinit
p239
tp240
I3
s(S'pos'
p241
S'neg'
p242
S'neutral'
p243
Vend
p244
tp245
I3
s(S'neg'
p246
S'neg'
p247
S'neutral'
p248
Vswitch
p249
tp250
I3
s(S'neutral'
p251
S'neg'
p252
S'neg'
p253
Vjoke
p254
tp255
I8
s(S'pos'
p256
S'neutral'
p257
S'pos'
p258
Vinit
p259
tp260
I2
s(S'pos'
p261
S'neg'
p262
S'neutral'
p263
Vinit
p264
tp265
I2
s(S'pos'
p266
S'neg'
p267
S'neg'
p268
Vcontinue
p269
tp270
I2
s(S'neutral'
p271
S'neutral'
p272
S'neg'
p273
Vmore
p274
tp275
I1
s(S'pos'
p276
S'neg'
p277
S'neutral'
p278
Vjoke
p279
tp280
I3
s(S'neutral'
p281
S'pos'
p282
S'neutral'
p283
Vinit
p284
tp285
I2
s(S'neutral'
p286
S'neg'
p287
S'neg'
p288
Vmore
p289
tp290
I8
s(S'neg'
p291
S'neg'
p292
S'neg'
p293
Vjoke
p294
tp295
I2
s(S'neg'
p296
S'pos'
p297
S'pos'
p298
Vcontinue
p299
tp300
I1
s(S'neutral'
p301
S'neg'
p302
S'pos'
p303
Vjoke
p304
tp305
I4
s(S'neg'
p306
S'neg'
p307
S'neutral'
p308
Vinit
p309
tp310
I3
s(S'neg'
p311
S'pos'
p312
S'neutral'
p313
Vcontinue
p314
tp315
I1
s(S'neutral'
p316
S'neg'
p317
S'pos'
p318
Vend
p319
tp320
I3
s(S'neg'
p321
S'pos'
p322
S'neg'
p323
Vmore
p324
tp325
I3
s(S'neg'
p326
S'neg'
p327
S'pos'
p328
Vjoke
p329
tp330
I2
s(S'neg'
p331
S'neg'
p332
S'neg'
p333
Vinit
p334
tp335
I2
s(S'pos'
p336
S'neg'
p337
S'neutral'
p338
Vswitch
p339
tp340
I3
s(S'neg'
p341
S'neg'
p342
S'pos'
p343
Vcontinue
p344
tp345
I1
s(S'neutral'
p346
S'pos'
p347
S'pos'
p348
Vmore
p349
tp350
I2
s(S'pos'
p351
S'pos'
p352
S'pos'
p353
Vmore
p354
tp355
I4
s(S'neg'
p356
S'neutral'
p357
S'pos'
p358
Vend
p359
tp360
I1
s(S'neg'
p361
S'neg'
p362
S'pos'
p363
Vend
p364
tp365
I2
s(S'neutral'
p366
S'neg'
p367
S'neg'
p368
Vinit
p369
tp370
I8
s(S'pos'
p371
S'neg'
p372
S'pos'
p373
Vmore
p374
tp375
I4
s(S'neutral'
p376
S'neutral'
p377
S'pos'
p378
Vend
p379
tp380
I1
s(S'neutral'
p381
S'pos'
p382
S'neg'
p383
Vinit
p384
tp385
I2
s(S'neutral'
p386
S'neg'
p387
S'neutral'
p388
Vmore
p389
tp390
I1
s(S'neg'
p391
S'neg'
p392
S'neg'
p393
Vswitch
p394
tp395
I2
s(S'pos'
p396
S'neg'
p397
S'neg'
p398
Vjoke
p399
tp400
I2
s(S'neg'
p401
S'pos'
p402
S'neutral'
p403
Vend
p404
tp405
I2
s(S'neutral'
p406
S'neutral'
p407
S'pos'
p408
Vjoke
p409
tp410
I1
s(S'pos'
p411
S'neutral'
p412
S'pos'
p413
Vmore
p414
tp415
I2
s(S'pos'
p416
S'pos'
p417
S'neg'
p418
Vswitch
p419
tp420
I3
s(S'pos'
p421
S'pos'
p422
S'neutral'
p423
Vinit
p424
tp425
I2
s(S'neg'
p426
S'pos'
p427
S'neutral'
p428
Vinit
p429
tp430
I2
s(S'neg'
p431
S'neg'
p432
S'neg'
p433
Vend
p434
tp435
I2
s(S'pos'
p436
S'pos'
p437
S'pos'
p438
Vinit
p439
tp440
I4
s(S'neutral'
p441
S'neg'
p442
S'neutral'
p443
Vjoke
p444
tp445
I1
s(S'neutral'
p446
S'pos'
p447
S'pos'
p448
Vinit
p449
tp450
I2
s(S'neg'
p451
S'pos'
p452
S'neg'
p453
Vswitch
p454
tp455
I3
s(S'pos'
p456
S'neutral'
p457
S'pos'
p458
Vend
p459
tp460
I2
s(S'neutral'
p461
S'pos'
p462
S'neutral'
p463
Vswitch
p464
tp465
I2
s(S'pos'
p466
S'pos'
p467
S'neg'
p468
Vend
p469
tp470
I3
s(S'pos'
p471
S'neutral'
p472
S'pos'
p473
Vswitch
p474
tp475
I1
s(S'neutral'
p476
S'neg'
p477
S'neutral'
p478
Vinit
p479
tp480
I1
s(S'neutral'
p481
S'neutral'
p482
S'neg'
p483
Vjoke
p484
tp485
I1
s(S'pos'
p486
S'pos'
p487
S'neg'
p488
Vjoke
p489
tp490
I3
s(S'pos'
p491
S'pos'
p492
S'neutral'
p493
Vjoke
p494
tp495
I2
s(S'neutral'
p496
S'pos'
p497
S'neutral'
p498
Vjoke
p499
tp500
I2
s(S'neutral'
p501
S'neg'
p502
S'pos'
p503
Vcontinue
p504
tp505
I2
s(S'neg'
p506
S'pos'
p507
S'neg'
p508
Vcontinue
p509
tp510
I1
s(S'neutral'
p511
S'neutral'
p512
S'pos'
p513
Vswitch
p514
tp515
I1
s(S'neg'
p516
S'pos'
p517
S'neutral'
p518
Vjoke
p519
tp520
I2
s(S'pos'
p521
S'neg'
p522
S'pos'
p523
Vinit
p524
tp525
I5
s(S'pos'
p526
S'neg'
p527
S'neg'
p528
Vmore
p529
tp530
I1
s(S'neg'
p531
S'pos'
p532
S'neutral'
p533
Vmore
p534
tp535
I2
s(S'neg'
p536
S'neutral'
p537
S'pos'
p538
Vmore
p539
tp540
I1
s(S'pos'
p541
S'neg'
p542
S'neg'
p543
Vswitch
p544
tp545
I2
s(S'neutral'
p546
S'pos'
p547
S'neg'
p548
Vmore
p549
tp550
I2
s(S'neutral'
p551
S'pos'
p552
S'neg'
p553
Vjoke
p554
tp555
I2
s(S'pos'
p556
S'pos'
p557
S'neg'
p558
Vmore
p559
tp560
I3
s(S'neg'
p561
S'neg'
p562
S'neutral'
p563
Vend
p564
tp565
I3
s(S'neg'
p566
S'pos'
p567
S'pos'
p568
Vmore
p569
tp570
I2
s(S'neutral'
p571
S'neg'
p572
S'pos'
p573
Vswitch
p574
tp575
I4
s(S'neg'
p576
S'pos'
p577
S'pos'
p578
Vswitch
p579
tp580
I2
s(S'pos'
p581
S'pos'
p582
S'pos'
p583
Vjoke
p584
tp585
I4
s(S'pos'
p586
S'pos'
p587
S'neutral'
p588
Vmore
p589
tp590
I2
s(S'neg'
p591
S'pos'
p592
S'pos'
p593
Vjoke
p594
tp595
I2
s(S'neutral'
p596
S'pos'
p597
S'pos'
p598
Vend
p599
tp600
I2
s(S'pos'
p601
S'neg'
p602
S'pos'
p603
Vswitch
p604
tp605
I5
s(S'neutral'
p606
S'neg'
p607
S'neg'
p608
Vend
p609
tp610
I8
s(S'pos'
p611
S'neg'
p612
S'neutral'
p613
Vcontinue
p614
tp615
I1
s.(dp0
(S'neg'
p1
S'pos'
p2
g2
S'end'
p3
tp4
F1.0
s(g2
g1
g1
S'init'
p5
tp6
F1.0
s(g2
S'neutral'
p7
g1
g5
tp8
I1
s(g7
g7
g2
S'more'
p9
tp10
F1.0
s(g1
g1
g2
S'switch'
p11
tp12
F1.5
s(g1
g1
g7
g9
tp13
F1.6666666666666667
s(g2
g7
g1
S'joke'
p14
tp15
I1
s(g2
g1
g2
g3
tp16
F1.2
s(g7
g1
g2
g5
tp17
F1.5
s(g2
g1
g1
g3
tp18
F1.5
s(g1
g7
g2
g11
tp19
F2.0
s(g1
g1
g1
g9
tp20
F2.0
s(g2
g1
g2
g14
tp21
F1.8
s(g1
g7
g1
g9
tp22
I1
s(g1
g7
g7
g14
tp23
I1
s(g2
g2
g1
g5
tp24
F2.0
s(g2
g2
g7
g3
tp25
F2.5
s(g1
g2
g7
g11
tp26
F2.0
s(g7
g1
g7
g3
tp27
F3.0
s(g2
g7
g7
g14
tp28
I1
s(g2
g2
g2
g11
tp29
F1.5
s(g2
g7
g1
g11
tp30
I1
s(g7
g2
g2
g11
tp31
F1.5
s(g1
g1
g2
g5
tp32
F2.0
s(g1
g1
g7
g14
tp33
F2.0
s(g7
g2
g1
g3
tp34
F1.5
s(g7
g7
g1
g3
tp35
F1.0
s(g7
g1
g7
g11
tp36
F2.0
s(g7
g7
g7
g11
tp37
I1
s(g7
g2
g7
g9
tp38
F1.0
s(g1
g7
g1
g11
tp39
I1
s(g7
g7
g2
g5
tp40
F1.0
s(g1
g7
g2
g14
tp41
F1.0
s(g7
g7
g1
g11
tp42
F1.0
s(g7
g7
g1
g5
tp43
F1.0
s(g7
g1
g2
g9
tp44
F2.3333333333333335
s(g7
g1
g1
g11
tp45
F1.625
s(g7
g7
g7
g3
tp46
I1
s(g2
g7
g2
g14
tp47
F1.5
s(g7
g2
g2
g14
tp48
F1.0
s(g2
g7
g2
g3
tp49
F2.0
s(g2
g1
g7
g9
tp50
F2.0
s(g1
g2
g1
g14
tp51
F1.6666666666666667
s(g7
g2
g1
g11
tp52
F1.0
s(g2
g2
g2
g3
tp53
F2.0
s(g1
g2
g2
g5
tp54
F2.0
s(g2
g7
g7
g9
tp55
I1
s(g2
g7
g7
g11
tp56
I1
s(g7
g1
g1
g3
tp57
F1.875
s(g7
g2
g1
g14
tp58
F1.5
s(g7
g7
g7
g14
tp59
I1
s(g2
g2
g7
g11
tp60
F2.0
s(g7
g2
g7
g3
tp61
F1.5
s(g1
g2
g1
g3
tp62
F1.6666666666666667
s(g1
g2
g1
g5
tp63
F2.0
s(g2
g1
g7
g3
tp64
F1.0
s(g1
g1
g7
g11
tp65
F1.3333333333333333
s(g7
g2
g7
g5
tp66
F1.5
s(g2
g7
g2
g5
tp67
F2.0
s(g7
g7
g7
g9
tp68
I1
s(g2
g7
g7
g5
tp69
I1
s(g2
g1
g7
g5
tp70
F2.0
s(g1
g2
g2
g14
tp71
F2.0
s(g1
g7
g7
g5
tp72
I1
s(g2
g1
g7
g14
tp73
F1.0
s(g7
g1
g1
g14
tp74
F1.375
s(g7
g1
g1
g9
tp75
F2.125
s(g2
g7
g7
g3
tp76
I1
s(g1
g1
g1
g14
tp77
F1.5
s(g7
g1
g7
g9
tp78
F1.0
s(g7
g1
g2
g14
tp79
F2.0
s(g1
g1
g7
g5
tp80
F2.0
s(g7
g1
g7
g14
tp81
F1.0
s(g7
g1
g2
g3
tp82
F1.6666666666666667
s(g1
g2
g1
g9
tp83
F2.0
s(g1
g1
g2
g14
tp84
F1.5
s(g1
g1
g1
g5
tp85
F2.0
s(g7
g7
g1
g9
tp86
F1.0
s(g2
g1
g7
g11
tp87
F1.0
s(g7
g7
g7
g5
tp88
I1
s(g1
g7
g1
g5
tp89
I1
s(g7
g2
g2
g9
tp90
F2.5
s(g2
g2
g2
g9
tp91
F2.25
s(g1
g7
g2
g3
tp92
F2.0
s(g2
g7
g2
g9
tp93
F2.5
s(g7
g2
g7
g14
tp94
F1.0
s(g2
g1
g2
g9
tp95
F1.5
s(g7
g7
g2
g3
tp96
F1.0
s(g7
g2
g1
g5
tp97
F1.0
s(g1
g7
g2
g5
tp98
F1.0
s(g1
g1
g1
g11
tp99
F1.5
s(g2
g1
g1
g14
tp100
F1.0
s(g1
g2
g7
g3
tp101
F2.0
s(g7
g7
g2
g14
tp102
F2.0
s(g2
g2
g1
g11
tp103
F1.3333333333333333
s(g2
g2
g7
g5
tp104
F2.0
s(g1
g2
g7
g5
tp105
F1.0
s(g1
g1
g1
g3
tp106
F2.0
s(g2
g2
g2
g5
tp107
F1.25
s(g1
g7
g7
g9
tp108
I1
s(g7
g2
g2
g5
tp109
F1.5
s(g1
g2
g1
g11
tp110
F2.0
s(g1
g1
g2
g9
tp111
F1.5
s(g7
g2
g7
g11
tp112
F1.5
s(g2
g2
g1
g3
tp113
F1.6666666666666667
s(g2
g7
g2
g11
tp114
F1.0
s(g1
g7
g2
g9
tp115
F3.0
s(g1
g2
g2
g9
tp116
F1.0
s(g2
g2
g1
g14
tp117
F1.6666666666666667
s(g2
g2
g7
g14
tp118
F1.5
s(g7
g1
g1
g5
tp119
F1.875
s(g7
g7
g2
g11
tp120
F1.0
s(g1
g2
g7
g14
tp121
F1.5
s(g2
g1
g2
g5
tp122
F1.4
s(g2
g7
g1
g9
tp123
I1
s(g1
g7
g7
g11
tp124
I1
s(g2
g1
g1
g9
tp125
F1.0
s(g1
g2
g7
g9
tp126
F2.5
s(g7
g1
g7
g5
tp127
F1.0
s(g2
g1
g1
g11
tp128
F1.5
s(g7
g2
g1
g9
tp129
F1.0
s(g1
g1
g2
g3
tp130
F2.0
s(g2
g2
g1
g9
tp131
F1.6666666666666667
s(g1
g1
g7
g3
tp132
F1.6666666666666667
s(g7
g7
g1
g14
tp133
F1.0
s(g7
g1
g2
g11
tp134
F1.5
s(g1
g2
g2
g11
tp135
F1.0
s(g1
g7
g7
g3
tp136
I1
s(g2
g2
g2
g14
tp137
F1.75
s(g2
g2
g7
g9
tp138
F2.5
s(g7
g2
g2
g3
tp139
F2.0
s(g2
g7
g1
g3
tp140
I1
s(g1
g7
g1
g3
tp141
I1
s(g1
g7
g1
g14
tp142
I1
s(g2
g1
g2
g11
tp143
F1.6
s.