(dp0
(S'pos'
p1
g1
g1
tp2
S'more'
p3
s(S'neutral'
p4
g4
g1
tp5
S'joke'
p6
s(g4
g4
S'neg'
p7
tp8
S'end'
p9
s(g7
g7
g7
tp10
g9
s(g1
g7
g4
tp11
S'init'
p12
s(g1
g1
g4
tp13
g9
s(g4
g7
g7
tp14
g3
s(g7
g4
g1
tp15
g3
s(g4
g1
g7
tp16
g9
s(g1
g7
g7
tp17
g3
s(g1
g7
g1
tp18
g3
s(g4
g1
g4
tp19
g9
s(g1
g1
g7
tp20
g3
s(g7
g1
g4
tp21
g3
s(g7
g1
g7
tp22
S'switch'
p23
s(g7
g7
g4
tp24
g12
s(g7
g7
g1
tp25
g9
s(g4
g1
g1
tp26
g3
s(g4
g7
g1
tp27
g3
s(g1
g4
g1
tp28
g3
s(g7
g1
g1
tp29
g12
s(g4
g7
g4
tp30
g9
s.