(dp0
(S'neg'
p1
S'pos'
p2
S'pos'
p3
Vend
p4
tp5
I2
s(S'pos'
p6
S'neg'
p7
S'neg'
p8
Vinit
p9
tp10
I2
s(S'neutral'
p11
S'neutral'
p12
S'pos'
p13
Vmore
p14
tp15
I1
s(S'neg'
p16
S'neg'
p17
S'pos'
p18
Vswitch
p19
tp20
I3
s(S'neg'
p21
S'neg'
p22
S'neutral'
p23
Vmore
p24
tp25
I5
s(S'pos'
p26
S'neg'
p27
S'pos'
p28
Vend
p29
tp30
I6
s(S'neutral'
p31
S'neg'
p32
S'pos'
p33
Vinit
p34
tp35
I6
s(S'pos'
p36
S'neg'
p37
S'neg'
p38
Vend
p39
tp40
I3
s(S'neg'
p41
S'neutral'
p42
S'pos'
p43
Vswitch
p44
tp45
I2
s(S'pos'
p46
S'neg'
p47
S'pos'
p48
Vcontinue
p49
tp50
I1
s(S'neg'
p51
S'neg'
p52
S'neg'
p53
Vmore
p54
tp55
I4
s(S'pos'
p56
S'neg'
p57
S'pos'
p58
Vjoke
p59
tp60
I9
s(S'neg'
p61
S'neutral'
p62
S'pos'
p63
Vinit
p64
tp65
I1
s(S'neutral'
p66
S'neutral'
p67
S'neg'
p68
Vend
p69
tp70
I1
s(S'pos'
p71
S'pos'
p72
S'neg'
p73
Vinit
p74
tp75
I4
s(S'pos'
p76
S'pos'
p77
S'neutral'
p78
Vend
p79
tp80
I5
s(S'neg'
p81
S'pos'
p82
S'neutral'
p83
Vswitch
p84
tp85
I4
s(S'neutral'
p86
S'neg'
p87
S'neutral'
p88
Vend
p89
tp90
I3
s(S'pos'
p91
S'pos'
p92
S'pos'
p93
Vswitch
p94
tp95
I6
s(S'neutral'
p96
S'pos'
p97
S'pos'
p98
Vswitch
p99
tp100
I3
s(S'neg'
p101
S'neg'
p102
S'pos'
p103
Vinit
p104
tp105
I4
s(S'neg'
p106
S'neg'
p107
S'neutral'
p108
Vjoke
p109
tp110
I6
s(S'neutral'
p111
S'pos'
p112
S'neg'
p113
Vend
p114
tp115
I3
s(S'neutral'
p116
S'neg'
p117
S'neg'
p118
Vcontinue
p119
tp120
I1
s(S'neutral'
p121
S'neg'
p122
S'neutral'
p123
Vswitch
p124
tp125
I2
s(S'neutral'
p126
S'pos'
p127
S'neutral'
p128
Vmore
p129
tp130
I2
s(S'pos'
p131
S'pos'
p132
S'pos'
p133
Vcontinue
p134
tp135
I1
s(S'pos'
p136
S'neutral'
p137
S'pos'
p138
Vcontinue
p139
tp140
I1
s(S'neutral'
p141
S'neutral'
p142
S'pos'
p143
Vinit
p144
tp145
I1
s(S'neg'
p146
S'neutral'
p147
S'pos'
p148
Vjoke
p149
tp150
I1
s(S'neutral'
p151
S'neutral'
p152
S'neg'
p153
Vswitch
p154
tp155
I1
s(S'neg'
p156
S'pos'
p157
S'neutral'
p158
Vmore
p159
tp160
I5
s(S'neutral'
p161
S'neg'
p162
S'pos'
p163
Vmore
p164
tp165
I7
s(S'neutral'
p166
S'neg'
p167
S'neg'
p168
Vswitch
p169
tp170
I13
s(S'pos'
p171
S'neutral'
p172
S'pos'
p173
Vjoke
p174
tp175
I3
s(S'neutral'
p176
S'pos'
p177
S'pos'
p178
Vjoke
p179
tp180
I2
s(S'neg'
p181
S'neg'
p182
S'pos'
p183
Vmore
p184
tp185
I3
s(S'pos'
p186
S'neg'
p187
S'neutral'
p188
Vmore
p189
tp190
I6
s(S'neg'
p191
S'pos'
p192
S'neg'
p193
Vjoke
p194
tp195
I5
s(S'neutral'
p196
S'pos'
p197
S'neg'
p198
Vswitch
p199
tp200
I2
s(S'pos'
p201
S'pos'
p202
S'pos'
p203
Vend
p204
tp205
I8
s(S'neg'
p206
S'pos'
p207
S'pos'
p208
Vinit
p209
tp210
I4
s(S'pos'
p211
S'pos'
p212
S'neg'
p213
Vcontinue
p214
tp215
I3
s(S'neutral'
p216
S'neutral'
p217
S'neg'
p218
Vcontinue
p219
tp220
I1
s(S'pos'
p221
S'pos'
p222
S'neutral'
p223
Vswitch
p224
tp225
I4
s(S'neutral'
p226
S'pos'
p227
S'neutral'
p228
Vend
p229
tp230
I3
s(S'neg'
p231
S'pos'
p232
S'neg'
p233
Vend
p234
tp235
I5
s(S'neg'
p236
S'pos'
p237
S'neg'
p238
Vinit
p239
tp240
I6
s(S'pos'
p241
S'neg'
p242
S'neutral'
p243
Vend
p244
tp245
I3
s(S'neg'
p246
S'neg'
p247
S'neutral'
p248
Vswitch
p249
tp250
I4
s(S'neutral'
p251
S'neg'
p252
S'neg'
p253
Vjoke
p254
tp255
I11
s(S'pos'
p256
S'neutral'
p257
S'pos'
p258
Vinit
p259
tp260
I4
s(S'pos'
p261
S'neg'
p262
S'neutral'
p263
Vinit
p264
tp265
I4
s(S'pos'
p266
S'neg'
p267
S'neg'
p268
Vcontinue
p269
tp270
I3
s(S'neg'
p271
S'pos'
p272
S'pos'
p273
Vjoke
p274
tp275
I4
s(S'pos'
p276
S'neg'
p277
S'neutral'
p278
Vjoke
p279
tp280
I3
s(S'neutral'
p281
S'pos'
p282
S'neutral'
p283
Vinit
p284
tp285
I3
s(S'neutral'
p286
S'neg'
p287
S'neg'
p288
Vmore
p289
tp290
I17
s(S'neg'
p291
S'neg'
p292
S'neg'
p293
Vjoke
p294
tp295
I3
s(S'neg'
p296
S'pos'
p297
S'pos'
p298
Vcontinue
p299
tp300
I1
s(S'neutral'
p301
S'neg'
p302
S'pos'
p303
Vjoke
p304
tp305
I8
s(S'neg'
p306
S'neg'
p307
S'neutral'
p308
Vinit
p309
tp310
I6
s(S'neg'
p311
S'pos'
p312
S'neutral'
p313
Vcontinue
p314
tp315
I2
s(S'neutral'
p316
S'neg'
p317
S'pos'
p318
Vend
p319
tp320
I5
s(S'neg'
p321
S'pos'
p322
S'neg'
p323
Vmore
p324
tp325
I6
s(S'neg'
p326
S'neg'
p327
S'pos'
p328
Vjoke
p329
tp330
I3
s(S'neg'
p331
S'neg'
p332
S'neg'
p333
Vinit
p334
tp335
I4
s(S'neutral'
p336
S'neutral'
p337
S'neg'
p338
Vmore
p339
tp340
I1
s(S'pos'
p341
S'neg'
p342
S'neutral'
p343
Vswitch
p344
tp345
I3
s(S'neg'
p346
S'neg'
p347
S'pos'
p348
Vcontinue
p349
tp350
I1
s(S'neutral'
p351
S'pos'
p352
S'pos'
p353
Vmore
p354
tp355
I5
s(S'pos'
p356
S'pos'
p357
S'pos'
p358
Vmore
p359
tp360
I9
s(S'neg'
p361
S'neutral'
p362
S'pos'
p363
Vend
p364
tp365
I2
s(S'neg'
p366
S'neg'
p367
S'pos'
p368
Vend
p369
tp370
I4
s(S'neutral'
p371
S'neg'
p372
S'neg'
p373
Vinit
p374
tp375
I15
s(S'pos'
p376
S'neg'
p377
S'pos'
p378
Vmore
p379
tp380
I6
s(S'neutral'
p381
S'neutral'
p382
S'pos'
p383
Vend
p384
tp385
I1
s(S'neutral'
p386
S'pos'
p387
S'neg'
p388
Vinit
p389
tp390
I2
s(S'neutral'
p391
S'neg'
p392
S'neutral'
p393
Vmore
p394
tp395
I1
s(S'neg'
p396
S'neg'
p397
S'neg'
p398
Vswitch
p399
tp400
I3
s(S'pos'
p401
S'neg'
p402
S'neg'
p403
Vjoke
p404
tp405
I2
s(S'neg'
p406
S'pos'
p407
S'neutral'
p408
Vend
p409
tp410
I4
s(S'neutral'
p411
S'neutral'
p412
S'pos'
p413
Vjoke
p414
tp415
I2
s(S'pos'
p416
S'pos'
p417
S'neg'
p418
Vswitch
p419
tp420
I4
s(S'pos'
p421
S'pos'
p422
S'neutral'
p423
Vinit
p424
tp425
I4
s(S'neg'
p426
S'pos'
p427
S'neutral'
p428
Vinit
p429
tp430
I2
s(S'neg'
p431
S'neg'
p432
S'neg'
p433
Vend
p434
tp435
I4
s(S'pos'
p436
S'pos'
p437
S'pos'
p438
Vinit
p439
tp440
I5
s(S'neutral'
p441
S'neg'
p442
S'neutral'
p443
Vjoke
p444
tp445
I1
s(S'neutral'
p446
S'pos'
p447
S'pos'
p448
Vinit
p449
tp450
I3
s(S'neg'
p451
S'pos'
p452
S'neg'
p453
Vswitch
p454
tp455
I6
s(S'pos'
p456
S'neutral'
p457
S'pos'
p458
Vend
p459
tp460
I4
s(S'neutral'
p461
S'pos'
p462
S'neutral'
p463
Vswitch
p464
tp465
I3
s(S'pos'
p466
S'neutral'
p467
S'pos'
p468
Vswitch
p469
tp470
I1
s(S'pos'
p471
S'pos'
p472
S'neg'
p473
Vend
p474
tp475
I5
s(S'pos'
p476
S'neutral'
p477
S'pos'
p478
Vmore
p479
tp480
I5
s(S'neutral'
p481
S'neg'
p482
S'neutral'
p483
Vinit
p484
tp485
I1
s(S'neutral'
p486
S'neutral'
p487
S'neg'
p488
Vjoke
p489
tp490
I1
s(S'pos'
p491
S'pos'
p492
S'neg'
p493
Vjoke
p494
tp495
I5
s(S'pos'
p496
S'pos'
p497
S'neutral'
p498
Vjoke
p499
tp500
I3
s(S'neutral'
p501
S'pos'
p502
S'neutral'
p503
Vjoke
p504
tp505
I2
s(S'neutral'
p506
S'neg'
p507
S'pos'
p508
Vcontinue
p509
tp510
I2
s(S'neg'
p511
S'pos'
p512
S'neg'
p513
Vcontinue
p514
tp515
I1
s(S'neutral'
p516
S'neutral'
p517
S'pos'
p518
Vswitch
p519
tp520
I1
s(S'neg'
p521
S'pos'
p522
S'neutral'
p523
Vjoke
p524
tp525
I3
s(S'pos'
p526
S'neg'
p527
S'pos'
p528
Vinit
p529
tp530
I7
s(S'pos'
p531
S'neg'
p532
S'neg'
p533
Vmore
p534
tp535
I1
s(S'neutral'
p536
S'neutral'
p537
S'neg'
p538
Vinit
p539
tp540
I1
s(S'neg'
p541
S'neutral'
p542
S'pos'
p543
Vmore
p544
tp545
I3
s(S'pos'
p546
S'neg'
p547
S'neg'
p548
Vswitch
p549
tp550
I3
s(S'neutral'
p551
S'pos'
p552
S'neg'
p553
Vmore
p554
tp555
I2
s(S'neutral'
p556
S'pos'
p557
S'neg'
p558
Vjoke
p559
tp560
I3
s(S'pos'
p561
S'pos'
p562
S'neg'
p563
Vmore
p564
tp565
I5
s(S'neg'
p566
S'neg'
p567
S'neutral'
p568
Vend
p569
tp570
I5
s(S'neg'
p571
S'pos'
p572
S'pos'
p573
Vmore
p574
tp575
I2
s(S'neutral'
p576
S'neg'
p577
S'pos'
p578
Vswitch
p579
tp580
I6
s(S'neg'
p581
S'pos'
p582
S'pos'
p583
Vswitch
p584
tp585
I2
s(S'pos'
p586
S'pos'
p587
S'pos'
p588
Vjoke
p589
tp590
I7
s(S'pos'
p591
S'pos'
p592
S'neutral'
p593
Vmore
p594
tp595
I5
s(S'neutral'
p596
S'pos'
p597
S'pos'
p598
Vend
p599
tp600
I4
s(S'pos'
p601
S'neg'
p602
S'pos'
p603
Vswitch
p604
tp605
I8
s(S'neutral'
p606
S'neg'
p607
S'neg'
p608
Vend
p609
tp610
I15
s(S'pos'
p611
S'neg'
p612
S'neutral'
p613
Vcontinue
p614
tp615
I1
s.(dp0
(S'neg'
p1
S'pos'
p2
S'pos'
p3
Vend
p4
tp5
I2
s(S'pos'
p6
S'neg'
p7
S'neg'
p8
Vinit
p9
tp10
I2
s(S'neutral'
p11
S'neutral'
p12
S'pos'
p13
Vmore
p14
tp15
I1
s(S'neg'
p16
S'neg'
p17
S'pos'
p18
Vswitch
p19
tp20
I2
s(S'neg'
p21
S'neg'
p22
S'neutral'
p23
Vmore
p24
tp25
I3
s(S'pos'
p26
S'neg'
p27
S'pos'
p28
Vend
p29
tp30
I5
s(S'neutral'
p31
S'neg'
p32
S'pos'
p33
Vinit
p34
tp35
I4
s(S'pos'
p36
S'neg'
p37
S'neg'
p38
Vend
p39
tp40
I2
s(S'neg'
p41
S'neutral'
p42
S'pos'
p43
Vswitch
p44
tp45
I1
s(S'pos'
p46
S'neg'
p47
S'pos'
p48
Vcontinue
p49
tp50
I1
s(S'neg'
p51
S'neg'
p52
S'neg'
p53
Vmore
p54
tp55
I2
s(S'pos'
p56
S'neg'
p57
S'pos'
p58
Vjoke
p59
tp60
I5
s(S'neg'
p61
S'neutral'
p62
S'pos'
p63
Vinit
p64
tp65
I1
s(S'neutral'
p66
S'neutral'
p67
S'neg'
p68
Vend
p69
tp70
I1
s(S'pos'
p71
S'pos'
p72
S'neg'
p73
Vinit
p74
tp75
I2
s(S'pos'
p76
S'pos'
p77
S'neutral'
p78
Vend
p79
tp80
I2
s(S'neg'
p81
S'pos'
p82
S'neutral'
p83
Vswitch
p84
tp85
I2
s(S'neutral'
p86
S'neg'
p87
S'neutral'
p88
Vend
p89
tp90
I1
s(S'pos'
p91
S'pos'
p92
S'pos'
p93
Vswitch
p94
tp95
I4
s(S'neutral'
p96
S'pos'
p97
S'pos'
p98
Vswitch
p99
tp100
I2
s(S'neg'
p101
S'neg'
p102
S'pos'
p103
Vinit
p104
tp105
I2
s(S'neg'
p106
S'neg'
p107
S'neutral'
p108
Vjoke
p109
tp110
I3
s(S'neutral'
p111
S'pos'
p112
S'neg'
p113
Vend
p114
tp115
I2
s(S'neutral'
p116
S'neg'
p117
S'neg'
p118
Vcontinue
p119
tp120
I1
s(S'neutral'
p121
S'neg'
p122
S'neutral'
p123
Vswitch
p124
tp125
I1
s(S'neutral'
p126
S'pos'
p127
S'neutral'
p128
Vmore
p129
tp130
I2
s(S'pos'
p131
S'pos'
p132
S'pos'
p133
Vcontinue
p134
tp135
I1
s(S'pos'
p136
S'neutral'
p137
S'pos'
p138
Vcontinue
p139
tp140
I1
s(S'neutral'
p141
S'neutral'
p142
S'pos'
p143
Vinit
p144
tp145
I1
s(S'neg'
p146
S'neutral'
p147
S'pos'
p148
Vjoke
p149
tp150
I1
s(S'neutral'
p151
S'neutral'
p152
S'neg'
p153
Vswitch
p154
tp155
I1
s(S'neg'
p156
S'pos'
p157
S'neutral'
p158
Vmore
p159
tp160
I2
s(S'neutral'
p161
S'neg'
p162
S'pos'
p163
Vmore
p164
tp165
I3
s(S'neutral'
p166
S'neg'
p167
S'neg'
p168
Vswitch
p169
tp170
I8
s(S'pos'
p171
S'neutral'
p172
S'pos'
p173
Vjoke
p174
tp175
I2
s(S'neutral'
p176
S'pos'
p177
S'pos'
p178
Vjoke
p179
tp180
I2
s(S'neg'
p181
S'neg'
p182
S'pos'
p183
Vmore
p184
tp185
I2
s(S'pos'
p186
S'neg'
p187
S'neutral'
p188
Vmore
p189
tp190
I3
s(S'neg'
p191
S'pos'
p192
S'neg'
p193
Vjoke
p194
tp195
I3
s(S'neutral'
p196
S'pos'
p197
S'neg'
p198
Vswitch
p199
tp200
I2
s(S'pos'
p201
S'pos'
p202
S'pos'
p203
Vend
p204
tp205
I4
s(S'neg'
p206
S'pos'
p207
S'pos'
p208
Vinit
p209
tp210
I2
s(S'pos'
p211
S'pos'
p212
S'neg'
p213
Vcontinue
p214
tp215
I2
s(S'neutral'
p216
S'neutral'
p217
S'neg'
p218
Vcontinue
p219
tp220
I1
s(S'pos'
p221
S'pos'
p222
S'neutral'
p223
Vswitch
p224
tp225
I2
s(S'neutral'
p226
S'pos'
p227
S'neutral'
p228
Vend
p229
tp230
I2
s(S'neg'
p231
S'pos'
p232
S'neg'
p233
Vend
p234
tp235
I3
s(S'neg'
p236
S'pos'
p237
S'neg'
p238
Vinit
p239
tp240
I3
s(S'pos'
p241
S'neg'
p242
S'neutral'
p243
Vend
p244
tp245
I3
s(S'neg'
p246
S'neg'
p247
S'neutral'
p248
Vswitch
p249
tp250
I3
s(S'neutral'
p251
S'neg'
p252
S'neg'
p253
Vjoke
p254
tp255
I8
s(S'pos'
p256
S'neutral'
p257
S'pos'
p258
Vinit
p259
tp260
I2
s(S'pos'
p261
S'neg'
p262
S'neutral'
p263
Vinit
p264
tp265
I2
s(S'pos'
p266
S'neg'
p267
S'neg'
p268
Vcontinue
p269
tp270
I2
s(S'neg'
p271
S'pos'
p272
S'pos'
p273
Vjoke
p274
tp275
I2
s(S'pos'
p276
S'neg'
p277
S'neutral'
p278
Vjoke
p279
tp280
I3
s(S'neutral'
p281
S'pos'
p282
S'neutral'
p283
Vinit
p284
tp285
I2
s(S'neutral'
p286
S'neg'
p287
S'neg'
p288
Vmore
p289
tp290
I8
s(S'neg'
p291
S'neg'
p292
S'neg'
p293
Vjoke
p294
tp295
I2
s(S'neg'
p296
S'pos'
p297
S'pos'
p298
Vcontinue
p299
tp300
I1
s(S'neutral'
p301
S'neg'
p302
S'pos'
p303
Vjoke
p304
tp305
I4
s(S'neg'
p306
S'neg'
p307
S'neutral'
p308
Vinit
p309
tp310
I3
s(S'neg'
p311
S'pos'
p312
S'neutral'
p313
Vcontinue
p314
tp315
I1
s(S'neutral'
p316
S'neg'
p317
S'pos'
p318
Vend
p319
tp320
I3
s(S'neg'
p321
S'pos'
p322
S'neg'
p323
Vmore
p324
tp325
I3
s(S'neg'
p326
S'neg'
p327
S'pos'
p328
Vjoke
p329
tp330
I2
s(S'neg'
p331
S'neg'
p332
S'neg'
p333
Vinit
p334
tp335
I2
s(S'neutral'
p336
S'neutral'
p337
S'neg'
p338
Vmore
p339
tp340
I1
s(S'pos'
p341
S'neg'
p342
S'neutral'
p343
Vswitch
p344
tp345
I3
s(S'neg'
p346
S'neg'
p347
S'pos'
p348
Vcontinue
p349
tp350
I1
s(S'neutral'
p351
S'pos'
p352
S'pos'
p353
Vmore
p354
tp355
I2
s(S'pos'
p356
S'pos'
p357
S'pos'
p358
Vmore
p359
tp360
I4
s(S'neg'
p361
S'neutral'
p362
S'pos'
p363
Vend
p364
tp365
I1
s(S'neg'
p366
S'neg'
p367
S'pos'
p368
Vend
p369
tp370
I2
s(S'neutral'
p371
S'neg'
p372
S'neg'
p373
Vinit
p374
tp375
I8
s(S'pos'
p376
S'neg'
p377
S'pos'
p378
Vmore
p379
tp380
I4
s(S'neutral'
p381
S'neutral'
p382
S'pos'
p383
Vend
p384
tp385
I1
s(S'neutral'
p386
S'pos'
p387
S'neg'
p388
Vinit
p389
tp390
I2
s(S'neutral'
p391
S'neg'
p392
S'neutral'
p393
Vmore
p394
tp395
I1
s(S'neg'
p396
S'neg'
p397
S'neg'
p398
Vswitch
p399
tp400
I2
s(S'pos'
p401
S'neg'
p402
S'neg'
p403
Vjoke
p404
tp405
I2
s(S'neg'
p406
S'pos'
p407
S'neutral'
p408
Vend
p409
tp410
I2
s(S'neutral'
p411
S'neutral'
p412
S'pos'
p413
Vjoke
p414
tp415
I1
s(S'pos'
p416
S'pos'
p417
S'neg'
p418
Vswitch
p419
tp420
I3
s(S'pos'
p421
S'pos'
p422
S'neutral'
p423
Vinit
p424
tp425
I2
s(S'neg'
p426
S'pos'
p427
S'neutral'
p428
Vinit
p429
tp430
I2
s(S'neg'
p431
S'neg'
p432
S'neg'
p433
Vend
p434
tp435
I2
s(S'pos'
p436
S'pos'
p437
S'pos'
p438
Vinit
p439
tp440
I4
s(S'neutral'
p441
S'neg'
p442
S'neutral'
p443
Vjoke
p444
tp445
I1
s(S'neutral'
p446
S'pos'
p447
S'pos'
p448
Vinit
p449
tp450
I2
s(S'neg'
p451
S'pos'
p452
S'neg'
p453
Vswitch
p454
tp455
I3
s(S'pos'
p456
S'neutral'
p457
S'pos'
p458
Vend
p459
tp460
I2
s(S'neutral'
p461
S'pos'
p462
S'neutral'
p463
Vswitch
p464
tp465
I2
s(S'pos'
p466
S'neutral'
p467
S'pos'
p468
Vswitch
p469
tp470
I1
s(S'pos'
p471
S'pos'
p472
S'neg'
p473
Vend
p474
tp475
I3
s(S'pos'
p476
S'neutral'
p477
S'pos'
p478
Vmore
p479
tp480
I2
s(S'neutral'
p481
S'neg'
p482
S'neutral'
p483
Vinit
p484
tp485
I1
s(S'neutral'
p486
S'neutral'
p487
S'neg'
p488
Vjoke
p489
tp490
I1
s(S'pos'
p491
S'pos'
p492
S'neg'
p493
Vjoke
p494
tp495
I3
s(S'pos'
p496
S'pos'
p497
S'neutral'
p498
Vjoke
p499
tp500
I2
s(S'neutral'
p501
S'pos'
p502
S'neutral'
p503
Vjoke
p504
tp505
I2
s(S'neutral'
p506
S'neg'
p507
S'pos'
p508
Vcontinue
p509
tp510
I2
s(S'neg'
p511
S'pos'
p512
S'neg'
p513
Vcontinue
p514
tp515
I1
s(S'neutral'
p516
S'neutral'
p517
S'pos'
p518
Vswitch
p519
tp520
I1
s(S'neg'
p521
S'pos'
p522
S'neutral'
p523
Vjoke
p524
tp525
I2
s(S'pos'
p526
S'neg'
p527
S'pos'
p528
Vinit
p529
tp530
I5
s(S'pos'
p531
S'neg'
p532
S'neg'
p533
Vmore
p534
tp535
I1
s(S'neutral'
p536
S'neutral'
p537
S'neg'
p538
Vinit
p539
tp540
I1
s(S'neg'
p541
S'neutral'
p542
S'pos'
p543
Vmore
p544
tp545
I1
s(S'pos'
p546
S'neg'
p547
S'neg'
p548
Vswitch
p549
tp550
I2
s(S'neutral'
p551
S'pos'
p552
S'neg'
p553
Vmore
p554
tp555
I2
s(S'neutral'
p556
S'pos'
p557
S'neg'
p558
Vjoke
p559
tp560
I2
s(S'pos'
p561
S'pos'
p562
S'neg'
p563
Vmore
p564
tp565
I3
s(S'neg'
p566
S'neg'
p567
S'neutral'
p568
Vend
p569
tp570
I3
s(S'neg'
p571
S'pos'
p572
S'pos'
p573
Vmore
p574
tp575
I2
s(S'neutral'
p576
S'neg'
p577
S'pos'
p578
Vswitch
p579
tp580
I4
s(S'neg'
p581
S'pos'
p582
S'pos'
p583
Vswitch
p584
tp585
I2
s(S'pos'
p586
S'pos'
p587
S'pos'
p588
Vjoke
p589
tp590
I4
s(S'pos'
p591
S'pos'
p592
S'neutral'
p593
Vmore
p594
tp595
I2
s(S'neutral'
p596
S'pos'
p597
S'pos'
p598
Vend
p599
tp600
I2
s(S'pos'
p601
S'neg'
p602
S'pos'
p603
Vswitch
p604
tp605
I5
s(S'neutral'
p606
S'neg'
p607
S'neg'
p608
Vend
p609
tp610
I8
s(S'pos'
p611
S'neg'
p612
S'neutral'
p613
Vcontinue
p614
tp615
I1
s.