(dp0
(S'neg'
p1
S'neutral'
p2
g2
tp3
S'end'
p4
s(S'pos'
p5
g5
g5
tp6
S'more'
p7
s(g2
g2
g5
tp8
S'joke'
p9
s(g2
g2
g1
tp10
g4
s(g1
g1
g1
tp11
g4
s(g5
g1
g2
tp12
S'init'
p13
s(g5
g5
g2
tp14
g4
s(g2
g1
g1
tp15
g7
s(g1
g2
g5
tp16
g7
s(g2
g5
g1
tp17
g4
s(g5
g1
g1
tp18
g4
s(g5
g1
g5
tp19
g9
s(g2
g5
g2
tp20
g4
s(g5
g5
g1
tp21
g13
s(g1
g5
g2
tp22
g7
s(g1
g5
g1
tp23
S'switch'
p24
s(g1
g1
g2
tp25
g13
s(g2
g2
g2
tp26
g4
s(g1
g1
g5
tp27
g4
s(g2
g5
g5
tp28
g7
s(g2
g1
g5
tp29
g7
s(g1
g2
g1
tp30
g4
s(g5
g2
g1
tp31
g4
s(g5
g2
g5
tp32
g7
s(g1
g5
g5
tp33
g13
s(g5
g2
g2
tp34
g4
s(g2
g1
g2
tp35
g4
s.